; ModuleID = 'brighter'
source_filename = "/Users/dillon/CppWorkspace/Halide/src/runtime/posix_allocator.cpp"
target datalayout = "e-m:o-i64:64-f80:128-n8:16:32:64-S128"
target triple = "x86_64-apple-macosx"

%struct.mach_timebase_info = type { i32, i32 }
%"struct.Halide::Runtime::Internal::work_queue_t" = type { %struct.halide_mutex, i32, i32, %"struct.Halide::Runtime::Internal::work"*, i32, i32, %struct.halide_mutex, %struct.halide_mutex, %struct.halide_mutex, [256 x %struct.halide_thread*], i32, i8, i8 }
%"struct.Halide::Runtime::Internal::work" = type { %"struct.Halide::Runtime::Internal::work"*, i32 (i8*, i32, i8*)*, i8*, i32, i32, i8*, i32, i32 }
%struct.halide_mutex = type { [1 x i64] }
%struct.halide_thread = type opaque
%"class.Halide::Runtime::Internal::TraceBuffer" = type { %"class.Halide::Runtime::Internal::SharedExclusiveSpinLock", i32, i32, [1048576 x i8] }
%"class.Halide::Runtime::Internal::SharedExclusiveSpinLock" = type { i32 }
%struct.halide_trace_event_t = type <{ i8*, i8*, i32*, i8*, %struct.halide_type_t, i32, i32, i32, i32, [4 x i8] }>
%struct.halide_type_t = type { i8, i8, i16 }
%"struct.Halide::Runtime::Internal::CacheEntry" = type { %"struct.Halide::Runtime::Internal::CacheEntry"*, %"struct.Halide::Runtime::Internal::CacheEntry"*, %"struct.Halide::Runtime::Internal::CacheEntry"*, i8*, i64, i8*, i32, i32, i32, i32, %struct.halide_dimension_t*, %struct.halide_buffer_t* }
%struct.halide_dimension_t = type { i32, i32, i32, i32 }
%struct.halide_buffer_t = type { i64, %struct.halide_device_interface_t*, i8*, i64, %struct.halide_type_t, i32, %struct.halide_dimension_t*, i8* }
%struct.halide_device_interface_t = type { i32 (i8*, %struct.halide_buffer_t*, %struct.halide_device_interface_t*)*, i32 (i8*, %struct.halide_buffer_t*)*, i32 (i8*, %struct.halide_buffer_t*)*, void (i8*, %struct.halide_device_interface_t*)*, i32 (i8*, %struct.halide_buffer_t*)*, i32 (i8*, %struct.halide_buffer_t*, %struct.halide_device_interface_t*)*, i32 (i8*, %struct.halide_buffer_t*, %struct.halide_device_interface_t*)*, i32 (i8*, %struct.halide_buffer_t*)*, i32 (i8*, %struct.halide_buffer_t*, %struct.halide_device_interface_t*, %struct.halide_buffer_t*)*, i32 (i8*, %struct.halide_buffer_t*, %struct.halide_buffer_t*)*, i32 (i8*, %struct.halide_buffer_t*, i32, i32, %struct.halide_buffer_t*)*, i32 (i8*, %struct.halide_buffer_t*)*, i32 (i8*, %struct.halide_buffer_t*, i64, %struct.halide_device_interface_t*)*, i32 (i8*, %struct.halide_buffer_t*)*, %struct.halide_device_interface_impl_t* }
%struct.halide_device_interface_impl_t = type { void ()*, void ()*, i32 (i8*, %struct.halide_buffer_t*)*, i32 (i8*, %struct.halide_buffer_t*)*, i32 (i8*, %struct.halide_buffer_t*)*, i32 (i8*)*, i32 (i8*, %struct.halide_buffer_t*)*, i32 (i8*, %struct.halide_buffer_t*)*, i32 (i8*, %struct.halide_buffer_t*)*, i32 (i8*, %struct.halide_buffer_t*)*, i32 (i8*, %struct.halide_buffer_t*, %struct.halide_device_interface_t*, %struct.halide_buffer_t*)*, i32 (i8*, %struct.halide_buffer_t*, %struct.halide_buffer_t*)*, i32 (i8*, %struct.halide_buffer_t*, i32, i32, %struct.halide_buffer_t*)*, i32 (i8*, %struct.halide_buffer_t*)*, i32 (i8*, %struct.halide_buffer_t*, i64)*, i32 (i8*, %struct.halide_buffer_t*)* }
%struct.halide_profiler_state = type { %struct.halide_mutex, i32, i32, i32, i32, %struct.halide_profiler_pipeline_stats*, void (i32*, i32*)*, %struct.halide_thread* }
%struct.halide_profiler_pipeline_stats = type { i64, i64, i64, i64, i64, i64, i8*, %struct.halide_profiler_func_stats*, i8*, i32, i32, i32, i32, i32, [4 x i8] }
%struct.halide_profiler_func_stats = type { i64, i64, i64, i64, i64, i64, i64, i8*, i32, [4 x i8] }
%"struct.Halide::Runtime::Internal::Synchronization::mutex_parking_control" = type { %"struct.Halide::Runtime::Internal::Synchronization::parking_control", i64* }
%"struct.Halide::Runtime::Internal::Synchronization::parking_control" = type { i1 (i8*, %"struct.Halide::Runtime::Internal::Synchronization::validate_action"*)*, void (i8*)*, i64 (i8*, i32, i1)*, void (i8*, %"struct.Halide::Runtime::Internal::Synchronization::validate_action"*, i1, i1)* }
%"struct.Halide::Runtime::Internal::Synchronization::validate_action" = type { i8, [7 x i8], i64 }
%"struct.Halide::Runtime::Internal::Synchronization::wait_parking_control" = type { %"struct.Halide::Runtime::Internal::Synchronization::parking_control", i64*, %"class.Halide::Runtime::Internal::Synchronization::word_lock"* }
%"class.Halide::Runtime::Internal::Synchronization::word_lock" = type { i64 }
%"struct.Halide::Runtime::Internal::Synchronization::hash_bucket" = type { %"class.Halide::Runtime::Internal::Synchronization::word_lock", %"struct.Halide::Runtime::Internal::Synchronization::queue_data"*, %"struct.Halide::Runtime::Internal::Synchronization::queue_data"* }
%"struct.Halide::Runtime::Internal::Synchronization::queue_data" = type { %"struct.Halide::Runtime::Internal::Synchronization::thread_parker", i64, %"struct.Halide::Runtime::Internal::Synchronization::queue_data"*, i64 }
%"struct.Halide::Runtime::Internal::Synchronization::thread_parker" = type <{ %struct.pthread_mutex_t, %struct.pthread_mutex_t, i8, [7 x i8] }>
%struct.pthread_mutex_t = type { [8 x i64] }
%"struct.Halide::Runtime::Internal::Synchronization::word_lock_queue_data" = type { %"struct.Halide::Runtime::Internal::Synchronization::thread_parker", %"struct.Halide::Runtime::Internal::Synchronization::word_lock_queue_data"*, %"struct.Halide::Runtime::Internal::Synchronization::word_lock_queue_data"*, %"struct.Halide::Runtime::Internal::Synchronization::word_lock_queue_data"* }
%"struct.Halide::Runtime::Internal::Synchronization::bucket_pair" = type { %"struct.Halide::Runtime::Internal::Synchronization::hash_bucket"*, %"struct.Halide::Runtime::Internal::Synchronization::hash_bucket"* }
%"struct.Halide::Runtime::Internal::spawned_thread" = type { void (i8*)*, i8*, i64 }
%"struct.Halide::Runtime::Internal::halide_tiff_header" = type <{ i16, i16, i32, i16, [15 x %"struct.Halide::Runtime::Internal::tiff_tag"], i32, [2 x i32], [2 x i32] }>
%"struct.Halide::Runtime::Internal::tiff_tag" = type { i16, i16, i32, %"class.Halide::Runtime::Internal::SharedExclusiveSpinLock" }
%"struct.Halide::Runtime::Internal::CacheBlockHeader" = type { %"struct.Halide::Runtime::Internal::CacheEntry"*, i32, [4 x i8] }
%"struct.Halide::Runtime::Internal::device_copy" = type { i64, i64, i64, [16 x i64], [16 x i64], [16 x i64], i64 }
%struct.halide_filter_metadata_t = type { i32, i32, %struct.halide_filter_argument_t*, i8*, i8* }
%struct.halide_filter_argument_t = type { i8*, i32, i32, %struct.halide_type_t, %struct.halide_scalar_value_t*, %struct.halide_scalar_value_t*, %struct.halide_scalar_value_t* }
%struct.halide_scalar_value_t = type { %union.anon.25 }
%union.anon.25 = type { double }
%struct.buffer_t = type { i64, i8*, [4 x i32], [4 x i32], [4 x i32], i32, i8, i8, [2 x i8] }
%"struct.Halide::Runtime::Internal::old_dev_wrapper" = type { i64, %struct.halide_device_interface_t* }
%"struct.Halide::Runtime::Internal::CpuFeatures" = type { [1 x i64], [1 x i64] }

$call_destructor = comdat any

@_ZN6Halide7Runtime8Internal13custom_mallocE = linkonce local_unnamed_addr global i8* (i8*, i64)* @halide_default_malloc, align 8
@_ZN6Halide7Runtime8Internal11custom_freeE = linkonce local_unnamed_addr global void (i8*, i8*)* @halide_default_free, align 8
@_ZN6Halide7Runtime8Internal13error_handlerE = linkonce local_unnamed_addr global void (i8*, i8*)* @halide_default_error, align 8
@.str = private unnamed_addr constant [8 x i8] c"Error: \00", align 1
@_ZN6Halide7Runtime8Internal12custom_printE = linkonce local_unnamed_addr global void (i8*, i8*)* @halide_default_print, align 8
@_ZN6Halide7Runtime8Internal29halide_reference_clock_initedE = linkonce local_unnamed_addr global i8 0, align 1
@_ZN6Halide7Runtime8Internal22halide_reference_clockE = linkonce local_unnamed_addr global i64 0, align 8
@_ZN6Halide7Runtime8Internal20halide_timebase_infoE = linkonce global %struct.mach_timebase_info zeroinitializer, align 4
@.str.5 = private unnamed_addr constant [6 x i8] c"/tmp/\00", align 1
@.str.1 = private unnamed_addr constant [7 x i8] c"XXXXXX\00", align 1
@_ZN6Halide7Runtime8Internal15Synchronization13table_storageE = linkonce global [24576 x i8] zeroinitializer, align 1
@_ZN6Halide7Runtime8Internal10work_queueE = linkonce global %"struct.Halide::Runtime::Internal::work_queue_t" zeroinitializer, align 8
@_ZN6Halide7Runtime8Internal14custom_do_taskE = linkonce local_unnamed_addr global i32 (i8*, i32 (i8*, i32, i8*)*, i32, i8*)* @halide_default_do_task, align 8
@_ZN6Halide7Runtime8Internal17custom_do_par_forE = linkonce local_unnamed_addr global i32 (i8*, i32 (i8*, i32, i8*)*, i32, i32, i8*)* @halide_default_do_par_for, align 8
@.str.5.6 = private unnamed_addr constant [162 x i8] c"/Users/dillon/CppWorkspace/Halide/src/runtime/thread_pool_common.h:71 Assert failed: bytes == limit && \22Logic error in thread pool work queue initialization.\5Cn\22\0A\00", align 1
@.str.4 = private unnamed_addr constant [102 x i8] c"/Users/dillon/CppWorkspace/Halide/src/runtime/synchronization_common.h:1070 Assert failed: val & 0x1\0A\00", align 1
@.str.7 = private unnamed_addr constant [15 x i8] c"HL_NUM_THREADS\00", align 1
@.str.1.8 = private unnamed_addr constant [14 x i8] c"HL_NUMTHREADS\00", align 1
@llvm.global_dtors = appending global [4 x { i32, void ()*, i8* }] [{ i32, void ()*, i8* } { i32 65535, void ()* @halide_thread_pool_cleanup, i8* null }, { i32, void ()*, i8* } { i32 65535, void ()* @halide_trace_cleanup, i8* null }, { i32, void ()*, i8* } { i32 65535, void ()* @halide_cache_cleanup, i8* null }, { i32, void ()*, i8* } { i32 65535, void ()* @halide_profiler_shutdown, i8* null }]
@.str.2 = private unnamed_addr constant [38 x i8] c"halide_set_num_threads: must be >= 0.\00", align 1
@_ZN6Halide7Runtime8Internal17custom_get_symbolE = linkonce local_unnamed_addr global i8* (i8*)* @halide_default_get_symbol, align 8
@_ZN6Halide7Runtime8Internal19custom_load_libraryE = linkonce local_unnamed_addr global i8* (i8*)* @halide_default_load_library, align 8
@_ZN6Halide7Runtime8Internal25custom_get_library_symbolE = linkonce local_unnamed_addr global i8* (i8*, i8*)* @halide_default_get_library_symbol, align 8
@_ZN6Halide7Runtime8Internal17halide_gpu_deviceE = linkonce local_unnamed_addr global i32 0, align 4
@_ZN6Halide7Runtime8Internal22halide_gpu_device_lockE = linkonce global i32 0, align 4
@_ZN6Halide7Runtime8Internal29halide_gpu_device_initializedE = linkonce local_unnamed_addr global i8 0, align 1
@.str.9 = private unnamed_addr constant [14 x i8] c"HL_GPU_DEVICE\00", align 1
@_ZN6Halide7Runtime8Internal19halide_trace_bufferE = linkonce local_unnamed_addr global %"class.Halide::Runtime::Internal::TraceBuffer"* null, align 8
@_ZN6Halide7Runtime8Internal17halide_trace_fileE = linkonce local_unnamed_addr global i32 -1, align 4
@_ZN6Halide7Runtime8Internal22halide_trace_file_lockE = linkonce global i32 0, align 4
@_ZN6Halide7Runtime8Internal29halide_trace_file_initializedE = linkonce local_unnamed_addr global i8 0, align 1
@_ZN6Halide7Runtime8Internal35halide_trace_file_internally_openedE = linkonce local_unnamed_addr global i8* null, align 8
@_ZN6Halide7Runtime8Internal19halide_custom_traceE = linkonce local_unnamed_addr global i32 (i8*, %struct.halide_trace_event_t*)* @halide_default_trace, align 8
@_ZZ20halide_default_traceE3ids = internal global i32 1, align 4
@.str.32 = private unnamed_addr constant [121 x i8] c"/Users/dillon/CppWorkspace/Halide/src/runtime/tracing.cpp:111 Assert failed: success && \22Could not write to trace file\22\0A\00", align 1
@.str.31 = private unnamed_addr constant [97 x i8] c"/Users/dillon/CppWorkspace/Halide/src/runtime/tracing.cpp:82 Assert failed: size <= buffer_size\0A\00", align 1
@.str.10 = private unnamed_addr constant [2 x i8] c"\0A\00", align 1
@.str.33 = private unnamed_addr constant [35 x i8] c"Printer buffer allocation failed.\0A\00", align 1
@.str.1.11 = private unnamed_addr constant [1 x i8] zeroinitializer, align 1
@.str.2.12 = private unnamed_addr constant [117 x i8] c"/Users/dillon/CppWorkspace/Halide/src/runtime/tracing.cpp:205 Assert failed: print_bits <= 64 && \22Tracing bad type\22\0A\00", align 1
@_ZZ20halide_default_traceE11event_types = private unnamed_addr constant [11 x i8*] [i8* getelementptr inbounds ([5 x i8], [5 x i8]* @.str.3, i32 0, i32 0), i8* getelementptr inbounds ([6 x i8], [6 x i8]* @.str.4.13, i32 0, i32 0), i8* getelementptr inbounds ([18 x i8], [18 x i8]* @.str.5.14, i32 0, i32 0), i8* getelementptr inbounds ([16 x i8], [16 x i8]* @.str.6, i32 0, i32 0), i8* getelementptr inbounds ([8 x i8], [8 x i8]* @.str.7.15, i32 0, i32 0), i8* getelementptr inbounds ([12 x i8], [12 x i8]* @.str.8, i32 0, i32 0), i8* getelementptr inbounds ([8 x i8], [8 x i8]* @.str.9.16, i32 0, i32 0), i8* getelementptr inbounds ([12 x i8], [12 x i8]* @.str.10.17, i32 0, i32 0), i8* getelementptr inbounds ([15 x i8], [15 x i8]* @.str.11, i32 0, i32 0), i8* getelementptr inbounds ([13 x i8], [13 x i8]* @.str.12, i32 0, i32 0), i8* getelementptr inbounds ([4 x i8], [4 x i8]* @.str.13, i32 0, i32 0)], align 8
@.str.14 = private unnamed_addr constant [2 x i8] c" \00", align 1
@.str.34 = private unnamed_addr constant [7 x i8] c"<NULL>\00", align 1
@.str.15 = private unnamed_addr constant [2 x i8] c".\00", align 1
@.str.16 = private unnamed_addr constant [2 x i8] c"(\00", align 1
@.str.17 = private unnamed_addr constant [2 x i8] c"<\00", align 1
@.str.20 = private unnamed_addr constant [3 x i8] c">)\00", align 1
@.str.21 = private unnamed_addr constant [2 x i8] c")\00", align 1
@.str.19 = private unnamed_addr constant [3 x i8] c", \00", align 1
@.str.18 = private unnamed_addr constant [5 x i8] c">, <\00", align 1
@.str.22 = private unnamed_addr constant [5 x i8] c" = <\00", align 1
@.str.23 = private unnamed_addr constant [4 x i8] c" = \00", align 1
@.str.24 = private unnamed_addr constant [119 x i8] c"/Users/dillon/CppWorkspace/Halide/src/runtime/tracing.cpp:274 Assert failed: print_bits >= 16 && \22Tracing a bad type\22\0A\00", align 1
@.str.25 = private unnamed_addr constant [2 x i8] c">\00", align 1
@.str.26 = private unnamed_addr constant [9 x i8] c" tag = \22\00", align 1
@.str.27 = private unnamed_addr constant [2 x i8] c"\22\00", align 1
@.str.3 = private unnamed_addr constant [5 x i8] c"Load\00", align 1
@.str.4.13 = private unnamed_addr constant [6 x i8] c"Store\00", align 1
@.str.5.14 = private unnamed_addr constant [18 x i8] c"Begin realization\00", align 1
@.str.6 = private unnamed_addr constant [16 x i8] c"End realization\00", align 1
@.str.7.15 = private unnamed_addr constant [8 x i8] c"Produce\00", align 1
@.str.8 = private unnamed_addr constant [12 x i8] c"End produce\00", align 1
@.str.9.16 = private unnamed_addr constant [8 x i8] c"Consume\00", align 1
@.str.10.17 = private unnamed_addr constant [12 x i8] c"End consume\00", align 1
@.str.11 = private unnamed_addr constant [15 x i8] c"Begin pipeline\00", align 1
@.str.12 = private unnamed_addr constant [13 x i8] c"End pipeline\00", align 1
@.str.13 = private unnamed_addr constant [4 x i8] c"Tag\00", align 1
@.str.28 = private unnamed_addr constant [14 x i8] c"HL_TRACE_FILE\00", align 1
@.str.29 = private unnamed_addr constant [3 x i8] c"ab\00", align 1
@.str.30 = private unnamed_addr constant [116 x i8] c"/Users/dillon/CppWorkspace/Halide/src/runtime/tracing.cpp:335 Assert failed: file && \22Failed to open trace file\5Cn\22\0A\00", align 1
@_ZN6Halide7Runtime8Internal30pixel_type_to_tiff_sample_typeE = linkonce local_unnamed_addr global [10 x i16] [i16 3, i16 3, i16 1, i16 2, i16 1, i16 2, i16 1, i16 2, i16 1, i16 2], align 2
@_ZN6Halide7Runtime8Internal31pixel_type_to_matlab_class_codeE = linkonce local_unnamed_addr global [10 x i8] c"\07\06\09\08\0B\0A\0D\0C\0F\0E", align 1
@_ZN6Halide7Runtime8Internal30pixel_type_to_matlab_type_codeE = linkonce local_unnamed_addr global [10 x i8] c"\07\09\02\01\04\03\06\05\0D\0C", align 1
@.str.35 = private unnamed_addr constant [59 x i8] c"Can't debug_to_file a Func with more than four dimensions\0A\00", align 1
@.str.1.36 = private unnamed_addr constant [3 x i8] c"wb\00", align 1
@.str.2.37 = private unnamed_addr constant [6 x i8] c".tiff\00", align 1
@.str.3.38 = private unnamed_addr constant [5 x i8] c".tif\00", align 1
@.str.4.39 = private unnamed_addr constant [5 x i8] c".mat\00", align 1
@_ZZ20halide_debug_to_fileE6header = private unnamed_addr constant [129 x i8] c"MATLAB 5.0 MAT-file, produced by Halide                                                                                     \00\01IM\00", align 1
@.str.5.40 = private unnamed_addr constant [53 x i8] c"Can't debug_to_file to a .mat file greater than 4GB\0A\00", align 1
@.str.6.41 = private unnamed_addr constant [39 x i8] c"Unexpectedly large final_padding_bytes\00", align 1
@_ZN6Halide7Runtime8Internal16memoization_lockE = linkonce global %struct.halide_mutex zeroinitializer, align 8
@_ZN6Halide7Runtime8Internal13cache_entriesE = linkonce local_unnamed_addr global [256 x %"struct.Halide::Runtime::Internal::CacheEntry"*] zeroinitializer, align 8
@_ZN6Halide7Runtime8Internal18most_recently_usedE = linkonce local_unnamed_addr global %"struct.Halide::Runtime::Internal::CacheEntry"* null, align 8
@_ZN6Halide7Runtime8Internal19least_recently_usedE = linkonce local_unnamed_addr global %"struct.Halide::Runtime::Internal::CacheEntry"* null, align 8
@_ZN6Halide7Runtime8Internal14max_cache_sizeE = linkonce local_unnamed_addr global i64 1048576, align 8
@_ZN6Halide7Runtime8Internal18current_cache_sizeE = linkonce local_unnamed_addr global i64 0, align 8
@.str.4.43 = private unnamed_addr constant [100 x i8] c"/Users/dillon/CppWorkspace/Halide/src/runtime/cache.cpp:273 Assert failed: prev_hash_entry != NULL\0A\00", align 1
@.str.5.44 = private unnamed_addr constant [103 x i8] c"/Users/dillon/CppWorkspace/Halide/src/runtime/cache.cpp:360 Assert failed: entry->more_recent != NULL\0A\00", align 1
@.str.6.45 = private unnamed_addr constant [105 x i8] c"/Users/dillon/CppWorkspace/Halide/src/runtime/cache.cpp:364 Assert failed: least_recently_used == entry\0A\00", align 1
@.str.7.46 = private unnamed_addr constant [103 x i8] c"/Users/dillon/CppWorkspace/Halide/src/runtime/cache.cpp:367 Assert failed: entry->more_recent != NULL\0A\00", align 1
@.str.9.47 = private unnamed_addr constant [99 x i8] c"/Users/dillon/CppWorkspace/Halide/src/runtime/cache.cpp:458 Assert failed: no_host_pointers_equal\0A\00", align 1
@.str.12.48 = private unnamed_addr constant [100 x i8] c"/Users/dillon/CppWorkspace/Halide/src/runtime/cache.cpp:536 Assert failed: entry->in_use_count > 0\0A\00", align 1
@.str.57 = private unnamed_addr constant [5 x i8] c"-nan\00", align 1
@.str.1.58 = private unnamed_addr constant [4 x i8] c"nan\00", align 1
@.str.2.59 = private unnamed_addr constant [5 x i8] c"-inf\00", align 1
@.str.3.60 = private unnamed_addr constant [4 x i8] c"inf\00", align 1
@.str.4.61 = private unnamed_addr constant [14 x i8] c"-0.000000e+00\00", align 1
@.str.5.62 = private unnamed_addr constant [13 x i8] c"0.000000e+00\00", align 1
@.str.6.63 = private unnamed_addr constant [10 x i8] c"-0.000000\00", align 1
@.str.7.64 = private unnamed_addr constant [9 x i8] c"0.000000\00", align 1
@.str.8.65 = private unnamed_addr constant [2 x i8] c"-\00", align 1
@.str.9.66 = private unnamed_addr constant [2 x i8] c".\00", align 1
@.str.10.67 = private unnamed_addr constant [3 x i8] c"e+\00", align 1
@.str.11.68 = private unnamed_addr constant [3 x i8] c"e-\00", align 1
@.str.12.71 = private unnamed_addr constant [17 x i8] c"0123456789abcdef\00", align 1
@.str.17.72 = private unnamed_addr constant [14 x i8] c"bad_type_code\00", align 1
@.str.16.73 = private unnamed_addr constant [7 x i8] c"handle\00", align 1
@.str.15.74 = private unnamed_addr constant [6 x i8] c"float\00", align 1
@.str.14.75 = private unnamed_addr constant [5 x i8] c"uint\00", align 1
@.str.13.76 = private unnamed_addr constant [4 x i8] c"int\00", align 1
@.str.18.77 = private unnamed_addr constant [2 x i8] c"x\00", align 1
@.str.19.78 = private unnamed_addr constant [5 x i8] c"NULL\00", align 1
@.str.20.79 = private unnamed_addr constant [8 x i8] c"buffer(\00", align 1
@.str.21.80 = private unnamed_addr constant [3 x i8] c", \00", align 1
@.str.24.81 = private unnamed_addr constant [2 x i8] c")\00", align 1
@.str.22.82 = private unnamed_addr constant [4 x i8] c", {\00", align 1
@.str.23.83 = private unnamed_addr constant [2 x i8] c"}\00", align 1
@_ZN6Halide7Runtime8Internal17device_copy_mutexE = linkonce global %struct.halide_mutex zeroinitializer, align 8
@.str.9.88 = private unnamed_addr constant [20 x i8] c"halide_copy_to_host\00", align 1
@.str.10.89 = private unnamed_addr constant [22 x i8] c"halide_copy_to_device\00", align 1
@.str.12.90 = private unnamed_addr constant [61 x i8] c"halide_copy_to_device does not support switching interfaces\0A\00", align 1
@.str.18.91 = private unnamed_addr constant [21 x i8] c"halide_device_malloc\00", align 1
@.str.20.92 = private unnamed_addr constant [59 x i8] c"halide_device_malloc doesn't support switching interfaces\0A\00", align 1
@.str.17.93 = private unnamed_addr constant [19 x i8] c"halide_device_sync\00", align 1
@.str.21.96 = private unnamed_addr constant [19 x i8] c"halide_device_free\00", align 1
@.str.22.97 = private unnamed_addr constant [104 x i8] c"/Users/dillon/CppWorkspace/Halide/src/runtime/device_interface.cpp:247 Assert failed: buf->device == 0\0A\00", align 1
@.str.23.98 = private unnamed_addr constant [30 x i8] c"halide_device_and_host_malloc\00", align 1
@.str.25.99 = private unnamed_addr constant [68 x i8] c"halide_device_and_host_malloc doesn't support switching interfaces\0A\00", align 1
@.str.26.100 = private unnamed_addr constant [42 x i8] c"allocating host and device memory failed\0A\00", align 1
@.str.27.101 = private unnamed_addr constant [28 x i8] c"halide_device_and_host_free\00", align 1
@.str.28.102 = private unnamed_addr constant [104 x i8] c"/Users/dillon/CppWorkspace/Halide/src/runtime/device_interface.cpp:312 Assert failed: buf->device == 0\0A\00", align 1
@.str.29.103 = private unnamed_addr constant [38 x i8] c"halide_default_device_and_host_malloc\00", align 1
@.str.30.104 = private unnamed_addr constant [36 x i8] c"halide_default_device_and_host_free\00", align 1
@.str.31.105 = private unnamed_addr constant [26 x i8] c"halide_device_wrap_native\00", align 1
@.str.32.106 = private unnamed_addr constant [64 x i8] c"halide_device_wrap_native doesn't support switching interfaces\0A\00", align 1
@.str.33.107 = private unnamed_addr constant [28 x i8] c"halide_device_detach_native\00", align 1
@.str.34.108 = private unnamed_addr constant [104 x i8] c"/Users/dillon/CppWorkspace/Halide/src/runtime/device_interface.cpp:399 Assert failed: buf->device == 0\0A\00", align 1
@.str.35.109 = private unnamed_addr constant [34 x i8] c"halide_default_device_wrap_native\00", align 1
@.str.36 = private unnamed_addr constant [36 x i8] c"halide_default_device_detach_native\00", align 1
@.str.48 = private unnamed_addr constant [64 x i8] c"halide_buffer_copy does not support switching device interfaces\00", align 1
@.str.49 = private unnamed_addr constant [44 x i8] c"device_interface does not support cropping\0A\00", align 1
@.str.50 = private unnamed_addr constant [43 x i8] c"device_interface does not support slicing\0A\00", align 1
@.str.51 = private unnamed_addr constant [52 x i8] c"destination buffer already has a device allocation\0A\00", align 1
@.str.52 = private unnamed_addr constant [48 x i8] c"src and dst must have identical dimensionality\0A\00", align 1
@.str.55 = private unnamed_addr constant [52 x i8] c"dst must have exactly one fewer dimension than src\0A\00", align 1
@.str.112 = private unnamed_addr constant [41 x i8] c"Bounds inference call to external stage \00", align 1
@.str.74 = private unnamed_addr constant [7 x i8] c"<NULL>\00", align 1
@.str.1.113 = private unnamed_addr constant [27 x i8] c" returned non-zero value: \00", align 1
@.str.73 = private unnamed_addr constant [35 x i8] c"Printer buffer allocation failed.\0A\00", align 1
@.str.2.114 = private unnamed_addr constant [24 x i8] c"Call to external stage \00", align 1
@.str.3.115 = private unnamed_addr constant [18 x i8] c"Bounds given for \00", align 1
@.str.4.116 = private unnamed_addr constant [5 x i8] c" in \00", align 1
@.str.5.117 = private unnamed_addr constant [8 x i8] c" (from \00", align 1
@.str.6.118 = private unnamed_addr constant [5 x i8] c" to \00", align 1
@.str.7.119 = private unnamed_addr constant [38 x i8] c") do not cover required region (from \00", align 1
@.str.8.120 = private unnamed_addr constant [2 x i8] c")\00", align 1
@.str.9.121 = private unnamed_addr constant [11 x i8] c" has type \00", align 1
@.str.10.122 = private unnamed_addr constant [38 x i8] c" but type of the buffer passed in is \00", align 1
@.str.11.123 = private unnamed_addr constant [31 x i8] c" requires a buffer of exactly \00", align 1
@.str.12.124 = private unnamed_addr constant [43 x i8] c" dimensions, but the buffer passed in has \00", align 1
@.str.13.125 = private unnamed_addr constant [12 x i8] c" dimensions\00", align 1
@.str.14.126 = private unnamed_addr constant [17 x i8] c" is accessed at \00", align 1
@.str.15.127 = private unnamed_addr constant [28 x i8] c", which is before the min (\00", align 1
@.str.16.128 = private unnamed_addr constant [16 x i8] c") in dimension \00", align 1
@.str.17.129 = private unnamed_addr constant [28 x i8] c", which is beyond the max (\00", align 1
@.str.18.130 = private unnamed_addr constant [29 x i8] c"Total allocation for buffer \00", align 1
@.str.19.131 = private unnamed_addr constant [5 x i8] c" is \00", align 1
@.str.20.132 = private unnamed_addr constant [37 x i8] c", which exceeds the maximum size of \00", align 1
@.str.21.133 = private unnamed_addr constant [24 x i8] c"The extents for buffer \00", align 1
@.str.22.134 = private unnamed_addr constant [12 x i8] c" dimension \00", align 1
@.str.23.135 = private unnamed_addr constant [15 x i8] c" is negative (\00", align 1
@.str.24.136 = private unnamed_addr constant [31 x i8] c"Product of extents for buffer \00", align 1
@.str.25.137 = private unnamed_addr constant [29 x i8] c"Applying the constraints on \00", align 1
@.str.26.138 = private unnamed_addr constant [42 x i8] c" to the required region made it smaller. \00", align 1
@.str.27.139 = private unnamed_addr constant [16 x i8] c"Required size: \00", align 1
@.str.28.140 = private unnamed_addr constant [3 x i8] c". \00", align 1
@.str.29.141 = private unnamed_addr constant [19 x i8] c"Constrained size: \00", align 1
@.str.30.142 = private unnamed_addr constant [2 x i8] c".\00", align 1
@.str.31.143 = private unnamed_addr constant [22 x i8] c"Constraint violated: \00", align 1
@.str.32.144 = private unnamed_addr constant [3 x i8] c" (\00", align 1
@.str.33.145 = private unnamed_addr constant [6 x i8] c") == \00", align 1
@.str.34.146 = private unnamed_addr constant [11 x i8] c"Parameter \00", align 1
@.str.35.147 = private unnamed_addr constant [23 x i8] c" but must be at least \00", align 1
@.str.36.148 = private unnamed_addr constant [22 x i8] c" but must be at most \00", align 1
@.str.37 = private unnamed_addr constant [44 x i8] c"Out of memory (halide_malloc returned NULL)\00", align 1
@.str.38 = private unnamed_addr constant [17 x i8] c"Buffer argument \00", align 1
@.str.39 = private unnamed_addr constant [9 x i8] c" is NULL\00", align 1
@.str.40 = private unnamed_addr constant [25 x i8] c"Failed to dump function \00", align 1
@.str.41 = private unnamed_addr constant [10 x i8] c" to file \00", align 1
@.str.42 = private unnamed_addr constant [13 x i8] c" with error \00", align 1
@.str.43 = private unnamed_addr constant [51 x i8] c"Failed to upgrade buffer_t to halide_buffer_t for \00", align 1
@.str.44 = private unnamed_addr constant [3 x i8] c": \00", align 1
@.str.45 = private unnamed_addr constant [53 x i8] c"Failed to downgrade halide_buffer_t to buffer_t for \00", align 1
@.str.46 = private unnamed_addr constant [21 x i8] c"The host pointer of \00", align 1
@.str.47 = private unnamed_addr constant [22 x i8] c" is not aligned to a \00", align 1
@.str.48.149 = private unnamed_addr constant [17 x i8] c" bytes boundary.\00", align 1
@.str.49.150 = private unnamed_addr constant [55 x i8] c" is null, but the pipeline will access it on the host.\00", align 1
@.str.50.151 = private unnamed_addr constant [30 x i8] c"The folded storage dimension \00", align 1
@.str.51.152 = private unnamed_addr constant [5 x i8] c" of \00", align 1
@.str.52.153 = private unnamed_addr constant [36 x i8] c" was accessed out of order by loop \00", align 1
@.str.53 = private unnamed_addr constant [23 x i8] c"Cannot fold dimension \00", align 1
@.str.54 = private unnamed_addr constant [36 x i8] c" because an extern stage accesses [\00", align 1
@.str.55.154 = private unnamed_addr constant [3 x i8] c", \00", align 1
@.str.56 = private unnamed_addr constant [3 x i8] c"],\00", align 1
@.str.57.155 = private unnamed_addr constant [47 x i8] c" which is outside the range currently valid: [\00", align 1
@.str.58 = private unnamed_addr constant [3 x i8] c"].\00", align 1
@.str.59 = private unnamed_addr constant [47 x i8] c" which wraps around the boundary of the fold, \00", align 1
@.str.60 = private unnamed_addr constant [30 x i8] c"which occurs at multiples of \00", align 1
@.str.61 = private unnamed_addr constant [18 x i8] c"The fold factor (\00", align 1
@.str.62 = private unnamed_addr constant [16 x i8] c") of dimension \00", align 1
@.str.63 = private unnamed_addr constant [61 x i8] c" is too small to store the required region accessed by loop \00", align 1
@.str.64 = private unnamed_addr constant [3 x i8] c").\00", align 1
@.str.65 = private unnamed_addr constant [22 x i8] c"Requirement Failed: (\00", align 1
@.str.66 = private unnamed_addr constant [3 x i8] c") \00", align 1
@.str.67 = private unnamed_addr constant [59 x i8] c"A schedule specialized with specialize_fail() was chosen: \00", align 1
@.str.68 = private unnamed_addr constant [55 x i8] c"Buffer has a non-zero device but no device interface.\0A\00", align 1
@.str.69 = private unnamed_addr constant [56 x i8] c"Buffer has a non-null devie_interface but device is 0.\0A\00", align 1
@.str.70 = private unnamed_addr constant [49 x i8] c"Buffer has both host and device dirty bits set.\0A\00", align 1
@.str.71 = private unnamed_addr constant [26 x i8] c"Buffer pointer passed to \00", align 1
@.str.72 = private unnamed_addr constant [11 x i8] c" is null.\0A\00", align 1
@.str.164 = private unnamed_addr constant [1 x i8] zeroinitializer, align 1
@.str.1.165 = private unnamed_addr constant [44 x i8] c"elem_size of buffer was not in [1, 2, 4, 8]\00", align 1
@.str.2.166 = private unnamed_addr constant [33 x i8] c"buffer has incorrect elem_size (\00", align 1
@.str.3.167 = private unnamed_addr constant [3 x i8] c") \00", align 1
@.str.4.168 = private unnamed_addr constant [20 x i8] c"for expected type (\00", align 1
@.str.5.169 = private unnamed_addr constant [2 x i8] c")\00", align 1
@.str.8.170 = private unnamed_addr constant [35 x i8] c"Printer buffer allocation failed.\0A\00", align 1
@.str.6.171 = private unnamed_addr constant [65 x i8] c"Internal error: buffer host mismatch in halide_upgrade_buffer_t.\00", align 1
@.str.7.172 = private unnamed_addr constant [37 x i8] c"buffer has more than four dimensions\00", align 1
@.str.30.174 = private unnamed_addr constant [7 x i8] c"<NULL>\00", align 1
@.str.7.175 = private unnamed_addr constant [2 x i8] c"\0A\00", align 1
@.str.8.176 = private unnamed_addr constant [14 x i8] c" total time: \00", align 1
@.str.9.177 = private unnamed_addr constant [4 x i8] c" ms\00", align 1
@.str.10.178 = private unnamed_addr constant [12 x i8] c"  samples: \00", align 1
@.str.11.179 = private unnamed_addr constant [9 x i8] c"  runs: \00", align 1
@.str.12.180 = private unnamed_addr constant [13 x i8] c"  time/run: \00", align 1
@.str.13.181 = private unnamed_addr constant [5 x i8] c" ms\0A\00", align 1
@.str.14.182 = private unnamed_addr constant [24 x i8] c" average threads used: \00", align 1
@.str.15.183 = private unnamed_addr constant [20 x i8] c" heap allocations: \00", align 1
@.str.16.184 = private unnamed_addr constant [20 x i8] c"  peak heap usage: \00", align 1
@.str.17.185 = private unnamed_addr constant [8 x i8] c" bytes\0A\00", align 1
@.str.18.186 = private unnamed_addr constant [3 x i8] c"  \00", align 1
@.str.19.187 = private unnamed_addr constant [3 x i8] c": \00", align 1
@.str.20.188 = private unnamed_addr constant [2 x i8] c" \00", align 1
@.str.21.189 = private unnamed_addr constant [3 x i8] c"ms\00", align 1
@.str.22.190 = private unnamed_addr constant [2 x i8] c"(\00", align 1
@.str.23.191 = private unnamed_addr constant [3 x i8] c"%)\00", align 1
@.str.24.192 = private unnamed_addr constant [10 x i8] c"threads: \00", align 1
@.str.25.193 = private unnamed_addr constant [8 x i8] c" peak: \00", align 1
@.str.26.194 = private unnamed_addr constant [7 x i8] c" num: \00", align 1
@.str.27.195 = private unnamed_addr constant [7 x i8] c" avg: \00", align 1
@.str.28.196 = private unnamed_addr constant [9 x i8] c" stack: \00", align 1
@_ZZ25halide_profiler_get_stateE1s = internal global %struct.halide_profiler_state { %struct.halide_mutex zeroinitializer, i32 1, i32 0, i32 0, i32 0, %struct.halide_profiler_pipeline_stats* null, void (i32*, i32*)* null, %struct.halide_thread* null }, align 8
@.str.197 = private unnamed_addr constant [95 x i8] c"/Users/dillon/CppWorkspace/Halide/src/runtime/profiler.cpp:201 Assert failed: p_stats != NULL\0A\00", align 1
@.str.1.198 = private unnamed_addr constant [95 x i8] c"/Users/dillon/CppWorkspace/Halide/src/runtime/profiler.cpp:228 Assert failed: p_stats != NULL\0A\00", align 1
@.str.2.199 = private unnamed_addr constant [92 x i8] c"/Users/dillon/CppWorkspace/Halide/src/runtime/profiler.cpp:229 Assert failed: func_id >= 0\0A\00", align 1
@.str.3.200 = private unnamed_addr constant [108 x i8] c"/Users/dillon/CppWorkspace/Halide/src/runtime/profiler.cpp:230 Assert failed: func_id < p_stats->num_funcs\0A\00", align 1
@.str.4.201 = private unnamed_addr constant [95 x i8] c"/Users/dillon/CppWorkspace/Halide/src/runtime/profiler.cpp:264 Assert failed: p_stats != NULL\0A\00", align 1
@.str.5.202 = private unnamed_addr constant [92 x i8] c"/Users/dillon/CppWorkspace/Halide/src/runtime/profiler.cpp:265 Assert failed: func_id >= 0\0A\00", align 1
@.str.6.203 = private unnamed_addr constant [108 x i8] c"/Users/dillon/CppWorkspace/Halide/src/runtime/profiler.cpp:266 Assert failed: func_id < p_stats->num_funcs\0A\00", align 1
@_ZN6Halide7Runtime8Internal30custom_can_use_target_featuresE = linkonce local_unnamed_addr global i32 (i32, i64*)* @halide_default_can_use_target_features, align 8
@_ZZ38halide_default_can_use_target_featuresE11initialized = internal unnamed_addr global i1 false, align 1
@_ZZ38halide_default_can_use_target_featuresE20cpu_features_storage = internal global [2 x i64] zeroinitializer, align 8
@.str.208 = private unnamed_addr constant [81 x i8] c"Internal error: wrong structure size passed to halide_can_use_target_features()\0A\00", align 1

; Function Attrs: nounwind
define weak i8* @halide_default_malloc(i8*, i64) #0 {
  %3 = tail call i32 @_ZN6Halide7Runtime8Internal23halide_malloc_alignmentEv() #13
  %4 = sext i32 %3 to i64
  %5 = add i64 %4, %1
  %6 = tail call i8* @malloc(i64 %5) #13
  %7 = icmp eq i8* %6, null
  br i1 %7, label %17, label %8

; <label>:8:                                      ; preds = %2
  %9 = ptrtoint i8* %6 to i64
  %10 = add nsw i64 %4, 7
  %11 = add i64 %10, %9
  %12 = sub nsw i64 0, %4
  %13 = and i64 %11, %12
  %14 = inttoptr i64 %13 to i8*
  %15 = inttoptr i64 %13 to i8**
  %16 = getelementptr inbounds i8*, i8** %15, i64 -1
  store i8* %6, i8** %16, align 8, !tbaa !3
  br label %17

; <label>:17:                                     ; preds = %8, %2
  %18 = phi i8* [ %14, %8 ], [ null, %2 ]
  ret i8* %18
}

declare i8* @malloc(i64) local_unnamed_addr #1

; Function Attrs: nounwind
define weak void @halide_default_free(i8*, i8*) #0 {
  %3 = getelementptr inbounds i8, i8* %1, i64 -8
  %4 = bitcast i8* %3 to i8**
  %5 = load i8*, i8** %4, align 8, !tbaa !3
  tail call void @free(i8* %5) #13
  ret void
}

declare void @free(i8*) local_unnamed_addr #1

; Function Attrs: norecurse nounwind
define weak i8* (i8*, i64)* @halide_set_custom_malloc(i8* (i8*, i64)*) local_unnamed_addr #2 {
  %2 = load i8* (i8*, i64)*, i8* (i8*, i64)** @_ZN6Halide7Runtime8Internal13custom_mallocE, align 8, !tbaa !3
  store i8* (i8*, i64)* %0, i8* (i8*, i64)** @_ZN6Halide7Runtime8Internal13custom_mallocE, align 8, !tbaa !3
  ret i8* (i8*, i64)* %2
}

; Function Attrs: norecurse nounwind
define weak void (i8*, i8*)* @halide_set_custom_free(void (i8*, i8*)*) local_unnamed_addr #2 {
  %2 = load void (i8*, i8*)*, void (i8*, i8*)** @_ZN6Halide7Runtime8Internal11custom_freeE, align 8, !tbaa !3
  store void (i8*, i8*)* %0, void (i8*, i8*)** @_ZN6Halide7Runtime8Internal11custom_freeE, align 8, !tbaa !3
  ret void (i8*, i8*)* %2
}

; Function Attrs: nounwind
define weak i8* @halide_malloc(i8*, i64) local_unnamed_addr #0 {
  %3 = load i8* (i8*, i64)*, i8* (i8*, i64)** @_ZN6Halide7Runtime8Internal13custom_mallocE, align 8, !tbaa !3
  %4 = tail call i8* %3(i8* %0, i64 %1) #13
  ret i8* %4
}

; Function Attrs: nounwind
define weak void @halide_free(i8*, i8*) local_unnamed_addr #0 {
  %3 = load void (i8*, i8*)*, void (i8*, i8*)** @_ZN6Halide7Runtime8Internal11custom_freeE, align 8, !tbaa !3
  tail call void %3(i8* %0, i8* %1) #13
  ret void
}

; Function Attrs: nounwind
define weak void @halide_default_error(i8*, i8*) #0 {
  %3 = alloca [4096 x i8], align 1
  %4 = getelementptr inbounds [4096 x i8], [4096 x i8]* %3, i64 0, i64 0
  call void @llvm.lifetime.start.p0i8(i64 4096, i8* nonnull %4) #14
  %5 = getelementptr inbounds [4096 x i8], [4096 x i8]* %3, i64 0, i64 4094
  %6 = call i8* @halide_string_to_string(i8* nonnull %4, i8* nonnull %5, i8* getelementptr inbounds ([8 x i8], [8 x i8]* @.str, i64 0, i64 0)) #13
  %7 = call i8* @halide_string_to_string(i8* %6, i8* nonnull %5, i8* %1) #13
  %8 = getelementptr inbounds i8, i8* %7, i64 -1
  %9 = load i8, i8* %8, align 1, !tbaa !7
  %10 = icmp eq i8 %9, 10
  br i1 %10, label %13, label %11

; <label>:11:                                     ; preds = %2
  store i8 10, i8* %7, align 1, !tbaa !7
  %12 = getelementptr inbounds i8, i8* %7, i64 1
  store i8 0, i8* %12, align 1, !tbaa !7
  br label %13

; <label>:13:                                     ; preds = %11, %2
  %14 = phi i8* [ %12, %11 ], [ %7, %2 ]
  %15 = ptrtoint i8* %14 to i64
  %16 = ptrtoint [4096 x i8]* %3 to i64
  %17 = sub i64 1, %16
  %18 = add i64 %17, %15
  call void @halide_msan_annotate_memory_is_initialized(i8* %0, i8* nonnull %4, i64 %18) #13
  call void @halide_print(i8* %0, i8* nonnull %4) #13
  call void @abort() #13
  call void @llvm.lifetime.end.p0i8(i64 4096, i8* nonnull %4) #14
  ret void
}

; Function Attrs: argmemonly nounwind
declare void @llvm.lifetime.start.p0i8(i64, i8* nocapture) #3

declare void @abort() local_unnamed_addr #1

; Function Attrs: argmemonly nounwind
declare void @llvm.lifetime.end.p0i8(i64, i8* nocapture) #3

; Function Attrs: nounwind
define weak void @halide_error(i8*, i8*) local_unnamed_addr #0 {
  %3 = load void (i8*, i8*)*, void (i8*, i8*)** @_ZN6Halide7Runtime8Internal13error_handlerE, align 8, !tbaa !3
  tail call void %3(i8* %0, i8* %1) #13
  ret void
}

; Function Attrs: norecurse nounwind
define weak void (i8*, i8*)* @halide_set_error_handler(void (i8*, i8*)*) local_unnamed_addr #2 {
  %2 = load void (i8*, i8*)*, void (i8*, i8*)** @_ZN6Halide7Runtime8Internal13error_handlerE, align 8, !tbaa !3
  store void (i8*, i8*)* %0, void (i8*, i8*)** @_ZN6Halide7Runtime8Internal13error_handlerE, align 8, !tbaa !3
  ret void (i8*, i8*)* %2
}

; Function Attrs: nounwind
define weak void @halide_print(i8*, i8*) local_unnamed_addr #0 {
  %3 = load void (i8*, i8*)*, void (i8*, i8*)** @_ZN6Halide7Runtime8Internal12custom_printE, align 8, !tbaa !3
  tail call void %3(i8* %0, i8* %1) #13
  ret void
}

; Function Attrs: norecurse nounwind
define weak void (i8*, i8*)* @halide_set_custom_print(void (i8*, i8*)*) local_unnamed_addr #2 {
  %2 = load void (i8*, i8*)*, void (i8*, i8*)** @_ZN6Halide7Runtime8Internal12custom_printE, align 8, !tbaa !3
  store void (i8*, i8*)* %0, void (i8*, i8*)** @_ZN6Halide7Runtime8Internal12custom_printE, align 8, !tbaa !3
  ret void (i8*, i8*)* %2
}

; Function Attrs: nounwind
define weak i32 @halide_start_clock(i8*) local_unnamed_addr #0 {
  %2 = load i8, i8* @_ZN6Halide7Runtime8Internal29halide_reference_clock_initedE, align 1, !tbaa !8, !range !10
  %3 = icmp eq i8 %2, 0
  br i1 %3, label %4, label %7

; <label>:4:                                      ; preds = %1
  %5 = tail call i32 @mach_timebase_info(%struct.mach_timebase_info* nonnull @_ZN6Halide7Runtime8Internal20halide_timebase_infoE) #13
  %6 = tail call i64 @mach_absolute_time() #13
  store i64 %6, i64* @_ZN6Halide7Runtime8Internal22halide_reference_clockE, align 8, !tbaa !11
  store i8 1, i8* @_ZN6Halide7Runtime8Internal29halide_reference_clock_initedE, align 1, !tbaa !8
  br label %7

; <label>:7:                                      ; preds = %4, %1
  ret i32 0
}

declare i32 @mach_timebase_info(%struct.mach_timebase_info*) local_unnamed_addr #1

declare i64 @mach_absolute_time() local_unnamed_addr #1

; Function Attrs: nounwind
define weak i64 @halide_current_time_ns(i8*) local_unnamed_addr #0 {
  %2 = tail call i64 @mach_absolute_time() #13
  %3 = load i64, i64* @_ZN6Halide7Runtime8Internal22halide_reference_clockE, align 8, !tbaa !11
  %4 = sub i64 %2, %3
  %5 = load i32, i32* getelementptr inbounds (%struct.mach_timebase_info, %struct.mach_timebase_info* @_ZN6Halide7Runtime8Internal20halide_timebase_infoE, i64 0, i32 0), align 4, !tbaa !13
  %6 = zext i32 %5 to i64
  %7 = mul i64 %4, %6
  %8 = load i32, i32* getelementptr inbounds (%struct.mach_timebase_info, %struct.mach_timebase_info* @_ZN6Halide7Runtime8Internal20halide_timebase_infoE, i64 0, i32 1), align 4, !tbaa !16
  %9 = zext i32 %8 to i64
  %10 = udiv i64 %7, %9
  ret i64 %10
}

; Function Attrs: nounwind
define weak void @halide_sleep_ms(i8*, i32) local_unnamed_addr #0 {
  %3 = mul nsw i32 %1, 1000
  %4 = tail call i32 @usleep(i32 %3) #13
  ret void
}

declare i32 @usleep(i32) local_unnamed_addr #1

; Function Attrs: nounwind
define weak void @halide_default_print(i8*, i8*) #0 {
  %3 = tail call i64 @strlen(i8* %1) #13
  %4 = tail call i64 @write(i32 1, i8* %1, i64 %3) #13
  ret void
}

declare i64 @strlen(i8*) local_unnamed_addr #1

declare i64 @write(i32, i8*, i64) local_unnamed_addr #1

; Function Attrs: nounwind
define weak i32 @halide_create_temp_file(i8*, i8*, i8*, i8*, i64) local_unnamed_addr #0 {
  %6 = icmp ne i8* %1, null
  %7 = icmp ne i8* %2, null
  %8 = and i1 %6, %7
  %9 = icmp ne i8* %3, null
  %10 = and i1 %8, %9
  br i1 %10, label %11, label %34

; <label>:11:                                     ; preds = %5
  %12 = tail call i64 @strlen(i8* getelementptr inbounds ([6 x i8], [6 x i8]* @.str.5, i64 0, i64 0)) #13
  %13 = tail call i64 @strlen(i8* nonnull %1) #13
  %14 = tail call i64 @strlen(i8* getelementptr inbounds ([7 x i8], [7 x i8]* @.str.1, i64 0, i64 0)) #13
  %15 = tail call i64 @strlen(i8* nonnull %2) #13
  %16 = add i64 %12, 1
  %17 = add i64 %16, %13
  %18 = add i64 %17, %14
  %19 = add i64 %18, %15
  %20 = icmp ugt i64 %19, %4
  br i1 %20, label %34, label %21

; <label>:21:                                     ; preds = %11
  %22 = getelementptr inbounds i8, i8* %3, i64 %4
  %23 = getelementptr inbounds i8, i8* %22, i64 -1
  %24 = tail call i8* @halide_string_to_string(i8* nonnull %3, i8* nonnull %23, i8* getelementptr inbounds ([6 x i8], [6 x i8]* @.str.5, i64 0, i64 0)) #13
  %25 = tail call i8* @halide_string_to_string(i8* %24, i8* nonnull %23, i8* nonnull %1) #13
  %26 = tail call i8* @halide_string_to_string(i8* %25, i8* nonnull %23, i8* getelementptr inbounds ([7 x i8], [7 x i8]* @.str.1, i64 0, i64 0)) #13
  %27 = tail call i8* @halide_string_to_string(i8* %26, i8* nonnull %23, i8* nonnull %2) #13
  store i8 0, i8* %27, align 1, !tbaa !7
  %28 = tail call i64 @strlen(i8* nonnull %2) #13
  %29 = trunc i64 %28 to i32
  %30 = tail call i32 @mkstemps(i8* nonnull %3, i32 %29) #13
  %31 = icmp eq i32 %30, -1
  br i1 %31, label %34, label %32

; <label>:32:                                     ; preds = %21
  %33 = tail call i32 @close(i32 %30) #13
  br label %34

; <label>:34:                                     ; preds = %32, %21, %11, %5
  %35 = phi i32 [ -22, %5 ], [ -22, %11 ], [ 0, %32 ], [ -22, %21 ]
  ret i32 %35
}

declare i32 @mkstemps(i8*, i32) local_unnamed_addr #1

declare i32 @close(i32) local_unnamed_addr #1

; Function Attrs: nounwind
define weak i32 @halide_host_cpu_count() local_unnamed_addr #0 {
  %1 = tail call i64 @sysconf(i32 58) #13
  %2 = trunc i64 %1 to i32
  ret i32 %2
}

declare i64 @sysconf(i32) local_unnamed_addr #1

; Function Attrs: nounwind
define linkonce void @_ZN6Halide7Runtime8Internal19halide_thread_yieldEv() local_unnamed_addr #0 {
  %1 = tail call i32 @swtch_pri(i32 0) #13
  ret void
}

declare i32 @swtch_pri(i32) local_unnamed_addr #1

; Function Attrs: nounwind
define weak i32 @halide_default_do_task(i8*, i32 (i8*, i32, i8*)*, i32, i8*) #0 {
  %5 = tail call i32 %1(i8* %0, i32 %2, i8* %3) #13
  ret i32 %5
}

; Function Attrs: nounwind
define weak i32 @halide_default_do_par_for(i8*, i32 (i8*, i32, i8*)*, i32, i32, i8*) #0 {
  %6 = alloca %"struct.Halide::Runtime::Internal::work", align 8
  %7 = icmp slt i32 %3, 1
  br i1 %7, label %71, label %8

; <label>:8:                                      ; preds = %5
  tail call void @halide_mutex_lock(%struct.halide_mutex* getelementptr inbounds (%"struct.Halide::Runtime::Internal::work_queue_t", %"struct.Halide::Runtime::Internal::work_queue_t"* @_ZN6Halide7Runtime8Internal10work_queueE, i64 0, i32 0)) #15
  %9 = load i8, i8* getelementptr inbounds (%"struct.Halide::Runtime::Internal::work_queue_t", %"struct.Halide::Runtime::Internal::work_queue_t"* @_ZN6Halide7Runtime8Internal10work_queueE, i64 0, i32 12), align 1, !tbaa !17, !range !10
  %10 = icmp eq i8 %9, 0
  br i1 %10, label %14, label %11

; <label>:11:                                     ; preds = %8
  %12 = load i32, i32* getelementptr inbounds (%"struct.Halide::Runtime::Internal::work_queue_t", %"struct.Halide::Runtime::Internal::work_queue_t"* @_ZN6Halide7Runtime8Internal10work_queueE, i64 0, i32 10), align 8, !tbaa !21
  %13 = load i32, i32* getelementptr inbounds (%"struct.Halide::Runtime::Internal::work_queue_t", %"struct.Halide::Runtime::Internal::work_queue_t"* @_ZN6Halide7Runtime8Internal10work_queueE, i64 0, i32 1), align 8, !tbaa !22
  br label %33

; <label>:14:                                     ; preds = %18, %8
  %15 = phi i8* [ %19, %18 ], [ bitcast (i32* getelementptr inbounds (%"struct.Halide::Runtime::Internal::work_queue_t", %"struct.Halide::Runtime::Internal::work_queue_t"* @_ZN6Halide7Runtime8Internal10work_queueE, i64 0, i32 2) to i8*), %8 ]
  %16 = load i8, i8* %15, align 1, !tbaa !7
  %17 = icmp eq i8 %16, 0
  br i1 %17, label %18, label %21

; <label>:18:                                     ; preds = %14
  %19 = getelementptr inbounds i8, i8* %15, i64 1
  %20 = icmp ult i8* %19, bitcast (%"struct.Halide::Runtime::Internal::work_queue_t"* getelementptr inbounds (%"struct.Halide::Runtime::Internal::work_queue_t", %"struct.Halide::Runtime::Internal::work_queue_t"* @_ZN6Halide7Runtime8Internal10work_queueE, i64 1) to i8*)
  br i1 %20, label %14, label %21

; <label>:21:                                     ; preds = %18, %14
  %22 = phi i8* [ %19, %18 ], [ %15, %14 ]
  %23 = icmp eq i8* %22, bitcast (%"struct.Halide::Runtime::Internal::work_queue_t"* getelementptr inbounds (%"struct.Halide::Runtime::Internal::work_queue_t", %"struct.Halide::Runtime::Internal::work_queue_t"* @_ZN6Halide7Runtime8Internal10work_queueE, i64 1) to i8*)
  br i1 %23, label %25, label %24

; <label>:24:                                     ; preds = %21
  tail call void @halide_print(i8* null, i8* getelementptr inbounds ([162 x i8], [162 x i8]* @.str.5.6, i64 0, i64 0)) #13
  tail call void @abort() #13
  br label %25

; <label>:25:                                     ; preds = %24, %21
  %26 = load i32, i32* getelementptr inbounds (%"struct.Halide::Runtime::Internal::work_queue_t", %"struct.Halide::Runtime::Internal::work_queue_t"* @_ZN6Halide7Runtime8Internal10work_queueE, i64 0, i32 1), align 8, !tbaa !22
  %27 = icmp eq i32 %26, 0
  br i1 %27, label %28, label %30

; <label>:28:                                     ; preds = %25
  %29 = tail call i32 @_ZN6Halide7Runtime8Internal27default_desired_num_threadsEv() #15
  store i32 %29, i32* getelementptr inbounds (%"struct.Halide::Runtime::Internal::work_queue_t", %"struct.Halide::Runtime::Internal::work_queue_t"* @_ZN6Halide7Runtime8Internal10work_queueE, i64 0, i32 1), align 8, !tbaa !22
  br label %30

; <label>:30:                                     ; preds = %28, %25
  %31 = phi i32 [ %26, %25 ], [ %29, %28 ]
  %32 = tail call i32 @_ZN6Halide7Runtime8Internal17clamp_num_threadsEi(i32 %31) #15
  store i32 %32, i32* getelementptr inbounds (%"struct.Halide::Runtime::Internal::work_queue_t", %"struct.Halide::Runtime::Internal::work_queue_t"* @_ZN6Halide7Runtime8Internal10work_queueE, i64 0, i32 1), align 8, !tbaa !22
  store i32 0, i32* getelementptr inbounds (%"struct.Halide::Runtime::Internal::work_queue_t", %"struct.Halide::Runtime::Internal::work_queue_t"* @_ZN6Halide7Runtime8Internal10work_queueE, i64 0, i32 10), align 8, !tbaa !21
  store i32 %32, i32* getelementptr inbounds (%"struct.Halide::Runtime::Internal::work_queue_t", %"struct.Halide::Runtime::Internal::work_queue_t"* @_ZN6Halide7Runtime8Internal10work_queueE, i64 0, i32 4), align 8, !tbaa !23
  store i8 1, i8* getelementptr inbounds (%"struct.Halide::Runtime::Internal::work_queue_t", %"struct.Halide::Runtime::Internal::work_queue_t"* @_ZN6Halide7Runtime8Internal10work_queueE, i64 0, i32 12), align 1, !tbaa !17
  br label %33

; <label>:33:                                     ; preds = %30, %11
  %34 = phi i32 [ %13, %11 ], [ %32, %30 ]
  %35 = phi i32 [ %12, %11 ], [ 0, %30 ]
  %36 = add nsw i32 %34, -1
  %37 = icmp slt i32 %35, %36
  br i1 %37, label %38, label %47

; <label>:38:                                     ; preds = %38, %33
  %39 = tail call %struct.halide_thread* @halide_spawn_thread(void (i8*)* nonnull @_ZN6Halide7Runtime8Internal13worker_threadEPv, i8* null) #15
  %40 = load i32, i32* getelementptr inbounds (%"struct.Halide::Runtime::Internal::work_queue_t", %"struct.Halide::Runtime::Internal::work_queue_t"* @_ZN6Halide7Runtime8Internal10work_queueE, i64 0, i32 10), align 8, !tbaa !21
  %41 = add nsw i32 %40, 1
  store i32 %41, i32* getelementptr inbounds (%"struct.Halide::Runtime::Internal::work_queue_t", %"struct.Halide::Runtime::Internal::work_queue_t"* @_ZN6Halide7Runtime8Internal10work_queueE, i64 0, i32 10), align 8, !tbaa !21
  %42 = sext i32 %40 to i64
  %43 = getelementptr inbounds %"struct.Halide::Runtime::Internal::work_queue_t", %"struct.Halide::Runtime::Internal::work_queue_t"* @_ZN6Halide7Runtime8Internal10work_queueE, i64 0, i32 9, i64 %42
  store %struct.halide_thread* %39, %struct.halide_thread** %43, align 8, !tbaa !3
  %44 = load i32, i32* getelementptr inbounds (%"struct.Halide::Runtime::Internal::work_queue_t", %"struct.Halide::Runtime::Internal::work_queue_t"* @_ZN6Halide7Runtime8Internal10work_queueE, i64 0, i32 1), align 8, !tbaa !22
  %45 = add nsw i32 %44, -1
  %46 = icmp slt i32 %41, %45
  br i1 %46, label %38, label %47

; <label>:47:                                     ; preds = %38, %33
  %48 = phi i32 [ %34, %33 ], [ %44, %38 ]
  %49 = bitcast %"struct.Halide::Runtime::Internal::work"* %6 to i8*
  call void @llvm.lifetime.start.p0i8(i64 48, i8* nonnull %49) #14
  %50 = getelementptr inbounds %"struct.Halide::Runtime::Internal::work", %"struct.Halide::Runtime::Internal::work"* %6, i64 0, i32 1
  store i32 (i8*, i32, i8*)* %1, i32 (i8*, i32, i8*)** %50, align 8, !tbaa !24
  %51 = getelementptr inbounds %"struct.Halide::Runtime::Internal::work", %"struct.Halide::Runtime::Internal::work"* %6, i64 0, i32 2
  store i8* %0, i8** %51, align 8, !tbaa !26
  %52 = getelementptr inbounds %"struct.Halide::Runtime::Internal::work", %"struct.Halide::Runtime::Internal::work"* %6, i64 0, i32 3
  store i32 %2, i32* %52, align 8, !tbaa !27
  %53 = add nsw i32 %3, %2
  %54 = getelementptr inbounds %"struct.Halide::Runtime::Internal::work", %"struct.Halide::Runtime::Internal::work"* %6, i64 0, i32 4
  store i32 %53, i32* %54, align 4, !tbaa !28
  %55 = getelementptr inbounds %"struct.Halide::Runtime::Internal::work", %"struct.Halide::Runtime::Internal::work"* %6, i64 0, i32 5
  store i8* %4, i8** %55, align 8, !tbaa !29
  %56 = getelementptr inbounds %"struct.Halide::Runtime::Internal::work", %"struct.Halide::Runtime::Internal::work"* %6, i64 0, i32 7
  store i32 0, i32* %56, align 4, !tbaa !30
  %57 = getelementptr inbounds %"struct.Halide::Runtime::Internal::work", %"struct.Halide::Runtime::Internal::work"* %6, i64 0, i32 6
  store i32 0, i32* %57, align 8, !tbaa !31
  %58 = load %"struct.Halide::Runtime::Internal::work"*, %"struct.Halide::Runtime::Internal::work"** getelementptr inbounds (%"struct.Halide::Runtime::Internal::work_queue_t", %"struct.Halide::Runtime::Internal::work_queue_t"* @_ZN6Halide7Runtime8Internal10work_queueE, i64 0, i32 3), align 8, !tbaa !32
  %59 = icmp eq %"struct.Halide::Runtime::Internal::work"* %58, null
  %60 = icmp sgt i32 %48, %3
  %61 = and i1 %60, %59
  %62 = select i1 %61, i32 %3, i32 %48
  store i32 %62, i32* getelementptr inbounds (%"struct.Halide::Runtime::Internal::work_queue_t", %"struct.Halide::Runtime::Internal::work_queue_t"* @_ZN6Halide7Runtime8Internal10work_queueE, i64 0, i32 5), align 4, !tbaa !33
  %63 = ptrtoint %"struct.Halide::Runtime::Internal::work"* %58 to i64
  %64 = bitcast %"struct.Halide::Runtime::Internal::work"* %6 to i64*
  store i64 %63, i64* %64, align 8, !tbaa !34
  store %"struct.Halide::Runtime::Internal::work"* %6, %"struct.Halide::Runtime::Internal::work"** getelementptr inbounds (%"struct.Halide::Runtime::Internal::work_queue_t", %"struct.Halide::Runtime::Internal::work_queue_t"* @_ZN6Halide7Runtime8Internal10work_queueE, i64 0, i32 3), align 8, !tbaa !32
  call void @halide_cond_broadcast(%struct.halide_mutex* getelementptr inbounds (%"struct.Halide::Runtime::Internal::work_queue_t", %"struct.Halide::Runtime::Internal::work_queue_t"* @_ZN6Halide7Runtime8Internal10work_queueE, i64 0, i32 7)) #15
  %65 = load i32, i32* getelementptr inbounds (%"struct.Halide::Runtime::Internal::work_queue_t", %"struct.Halide::Runtime::Internal::work_queue_t"* @_ZN6Halide7Runtime8Internal10work_queueE, i64 0, i32 5), align 4, !tbaa !33
  %66 = load i32, i32* getelementptr inbounds (%"struct.Halide::Runtime::Internal::work_queue_t", %"struct.Halide::Runtime::Internal::work_queue_t"* @_ZN6Halide7Runtime8Internal10work_queueE, i64 0, i32 4), align 8, !tbaa !23
  %67 = icmp sgt i32 %65, %66
  br i1 %67, label %68, label %69

; <label>:68:                                     ; preds = %47
  call void @halide_cond_broadcast(%struct.halide_mutex* getelementptr inbounds (%"struct.Halide::Runtime::Internal::work_queue_t", %"struct.Halide::Runtime::Internal::work_queue_t"* @_ZN6Halide7Runtime8Internal10work_queueE, i64 0, i32 8)) #15
  br label %69

; <label>:69:                                     ; preds = %68, %47
  call void @_ZN6Halide7Runtime8Internal28worker_thread_already_lockedEPNS1_4workE(%"struct.Halide::Runtime::Internal::work"* nonnull %6) #15
  call void @halide_mutex_unlock(%struct.halide_mutex* getelementptr inbounds (%"struct.Halide::Runtime::Internal::work_queue_t", %"struct.Halide::Runtime::Internal::work_queue_t"* @_ZN6Halide7Runtime8Internal10work_queueE, i64 0, i32 0)) #15
  %70 = load i32, i32* %56, align 4, !tbaa !30
  call void @llvm.lifetime.end.p0i8(i64 48, i8* nonnull %49) #14
  br label %71

; <label>:71:                                     ; preds = %69, %5
  %72 = phi i32 [ %70, %69 ], [ 0, %5 ]
  ret i32 %72
}

; Function Attrs: nounwind
define weak void @halide_mutex_lock(%struct.halide_mutex*) local_unnamed_addr #0 {
  %2 = alloca %"struct.Halide::Runtime::Internal::Synchronization::mutex_parking_control", align 8
  %3 = getelementptr inbounds %struct.halide_mutex, %struct.halide_mutex* %0, i64 0, i32 0, i64 0
  %4 = cmpxchg weak i64* %3, i64 0, i64 1 acquire monotonic
  %5 = extractvalue { i64, i1 } %4, 1
  br i1 %5, label %57, label %6

; <label>:6:                                      ; preds = %1
  %7 = load atomic i64, i64* %3 monotonic, align 8
  %8 = bitcast %"struct.Halide::Runtime::Internal::Synchronization::mutex_parking_control"* %2 to i8*
  %9 = getelementptr inbounds %"struct.Halide::Runtime::Internal::Synchronization::mutex_parking_control", %"struct.Halide::Runtime::Internal::Synchronization::mutex_parking_control"* %2, i64 0, i32 0, i32 0
  %10 = getelementptr inbounds %"struct.Halide::Runtime::Internal::Synchronization::mutex_parking_control", %"struct.Halide::Runtime::Internal::Synchronization::mutex_parking_control"* %2, i64 0, i32 0, i32 1
  %11 = getelementptr inbounds %"struct.Halide::Runtime::Internal::Synchronization::mutex_parking_control", %"struct.Halide::Runtime::Internal::Synchronization::mutex_parking_control"* %2, i64 0, i32 0, i32 2
  %12 = getelementptr inbounds %"struct.Halide::Runtime::Internal::Synchronization::mutex_parking_control", %"struct.Halide::Runtime::Internal::Synchronization::mutex_parking_control"* %2, i64 0, i32 0, i32 3
  %13 = getelementptr inbounds %"struct.Halide::Runtime::Internal::Synchronization::mutex_parking_control", %"struct.Halide::Runtime::Internal::Synchronization::mutex_parking_control"* %2, i64 0, i32 1
  %14 = ptrtoint %struct.halide_mutex* %0 to i64
  %15 = getelementptr inbounds %"struct.Halide::Runtime::Internal::Synchronization::mutex_parking_control", %"struct.Halide::Runtime::Internal::Synchronization::mutex_parking_control"* %2, i64 0, i32 0
  br label %16

; <label>:16:                                     ; preds = %53, %6
  %17 = phi i64 [ %7, %6 ], [ %54, %53 ]
  %18 = phi i32 [ 40, %6 ], [ %55, %53 ]
  %19 = and i64 %17, 1
  %20 = icmp eq i64 %19, 0
  br i1 %20, label %21, label %30

; <label>:21:                                     ; preds = %26, %16
  %22 = phi i64 [ %27, %26 ], [ %17, %16 ]
  %23 = or i64 %22, 1
  %24 = cmpxchg weak i64* %3, i64 %22, i64 %23 acquire monotonic
  %25 = extractvalue { i64, i1 } %24, 1
  br i1 %25, label %57, label %26

; <label>:26:                                     ; preds = %21
  %27 = extractvalue { i64, i1 } %24, 0
  %28 = and i64 %27, 1
  %29 = icmp eq i64 %28, 0
  br i1 %29, label %21, label %30

; <label>:30:                                     ; preds = %26, %16
  %31 = phi i64 [ %17, %16 ], [ %27, %26 ]
  %32 = and i64 %31, 2
  %33 = icmp eq i64 %32, 0
  br i1 %33, label %34, label %48

; <label>:34:                                     ; preds = %30
  %35 = icmp sgt i32 %18, 0
  br i1 %35, label %36, label %41

; <label>:36:                                     ; preds = %34
  %37 = icmp eq i32 %18, 1
  br i1 %37, label %41, label %38

; <label>:38:                                     ; preds = %36
  %39 = add nsw i32 %18, -1
  call void @_ZN6Halide7Runtime8Internal19halide_thread_yieldEv() #13
  %40 = load atomic i64, i64* %3 monotonic, align 8
  br label %53

; <label>:41:                                     ; preds = %36, %34
  %42 = phi i32 [ 0, %36 ], [ %18, %34 ]
  %43 = or i64 %31, 2
  %44 = cmpxchg weak i64* %3, i64 %31, i64 %43 monotonic monotonic
  %45 = extractvalue { i64, i1 } %44, 1
  br i1 %45, label %48, label %46

; <label>:46:                                     ; preds = %41
  %47 = extractvalue { i64, i1 } %44, 0
  br label %53

; <label>:48:                                     ; preds = %41, %30
  call void @llvm.lifetime.start.p0i8(i64 40, i8* nonnull %8) #14
  store void (i8*)* @_ZN6Halide7Runtime8Internal15Synchronization28parking_control_before_sleepEPv, void (i8*)** %10, align 8, !tbaa !35
  store void (i8*, %"struct.Halide::Runtime::Internal::Synchronization::validate_action"*, i1, i1)* @_ZN6Halide7Runtime8Internal15Synchronization32parking_control_requeue_callbackEPvRKNS2_15validate_actionEbb, void (i8*, %"struct.Halide::Runtime::Internal::Synchronization::validate_action"*, i1, i1)** %12, align 8, !tbaa !37
  store i64* %3, i64** %13, align 8, !tbaa !38
  store i1 (i8*, %"struct.Halide::Runtime::Internal::Synchronization::validate_action"*)* @_ZN6Halide7Runtime8Internal15Synchronization30mutex_parking_control_validateEPvRNS2_15validate_actionE, i1 (i8*, %"struct.Halide::Runtime::Internal::Synchronization::validate_action"*)** %9, align 8, !tbaa !40
  store i64 (i8*, i32, i1)* @_ZN6Halide7Runtime8Internal15Synchronization28mutex_parking_control_unparkEPvib, i64 (i8*, i32, i1)** %11, align 8, !tbaa !41
  %49 = call i64 @_ZN6Halide7Runtime8Internal15Synchronization4parkEyRNS2_15parking_controlE(i64 %14, %"struct.Halide::Runtime::Internal::Synchronization::parking_control"* nonnull dereferenceable(32) %15) #13
  %50 = icmp eq i64 %49, %14
  br i1 %50, label %56, label %51

; <label>:51:                                     ; preds = %48
  %52 = load atomic i64, i64* %3 monotonic, align 8
  call void @llvm.lifetime.end.p0i8(i64 40, i8* nonnull %8) #14
  br label %53

; <label>:53:                                     ; preds = %51, %46, %38
  %54 = phi i64 [ %47, %46 ], [ %52, %51 ], [ %40, %38 ]
  %55 = phi i32 [ %42, %46 ], [ 40, %51 ], [ %39, %38 ]
  br label %16

; <label>:56:                                     ; preds = %48
  call void @llvm.lifetime.end.p0i8(i64 40, i8* nonnull %8) #14
  br label %57

; <label>:57:                                     ; preds = %56, %21, %1
  ret void
}

; Function Attrs: nounwind
define linkonce i32 @_ZN6Halide7Runtime8Internal27default_desired_num_threadsEv() local_unnamed_addr #0 {
  %1 = tail call i8* @getenv(i8* getelementptr inbounds ([15 x i8], [15 x i8]* @.str.7, i64 0, i64 0)) #13
  %2 = icmp eq i8* %1, null
  br i1 %2, label %3, label %6

; <label>:3:                                      ; preds = %0
  %4 = tail call i8* @getenv(i8* getelementptr inbounds ([14 x i8], [14 x i8]* @.str.1.8, i64 0, i64 0)) #13
  %5 = icmp eq i8* %4, null
  br i1 %5, label %9, label %6

; <label>:6:                                      ; preds = %3, %0
  %7 = phi i8* [ %4, %3 ], [ %1, %0 ]
  %8 = tail call i32 @atoi(i8* nonnull %7) #13
  br label %11

; <label>:9:                                      ; preds = %3
  %10 = tail call i32 @halide_host_cpu_count() #13
  br label %11

; <label>:11:                                     ; preds = %9, %6
  %12 = phi i32 [ %8, %6 ], [ %10, %9 ]
  ret i32 %12
}

; Function Attrs: norecurse nounwind
define linkonce i32 @_ZN6Halide7Runtime8Internal17clamp_num_threadsEi(i32) local_unnamed_addr #2 {
  %2 = icmp sgt i32 %0, 256
  br i1 %2, label %6, label %3

; <label>:3:                                      ; preds = %1
  %4 = icmp sgt i32 %0, 1
  %5 = select i1 %4, i32 %0, i32 1
  ret i32 %5

; <label>:6:                                      ; preds = %1
  ret i32 256
}

; Function Attrs: nounwind
define linkonce void @_ZN6Halide7Runtime8Internal13worker_threadEPv(i8*) #0 {
  tail call void @halide_mutex_lock(%struct.halide_mutex* getelementptr inbounds (%"struct.Halide::Runtime::Internal::work_queue_t", %"struct.Halide::Runtime::Internal::work_queue_t"* @_ZN6Halide7Runtime8Internal10work_queueE, i64 0, i32 0)) #15
  tail call void @_ZN6Halide7Runtime8Internal28worker_thread_already_lockedEPNS1_4workE(%"struct.Halide::Runtime::Internal::work"* null) #15
  tail call void @halide_mutex_unlock(%struct.halide_mutex* getelementptr inbounds (%"struct.Halide::Runtime::Internal::work_queue_t", %"struct.Halide::Runtime::Internal::work_queue_t"* @_ZN6Halide7Runtime8Internal10work_queueE, i64 0, i32 0)) #15
  ret void
}

; Function Attrs: nounwind
define weak %struct.halide_thread* @halide_spawn_thread(void (i8*)*, i8*) local_unnamed_addr #0 {
  %3 = tail call i8* @malloc(i64 24) #13
  %4 = bitcast i8* %3 to void (i8*)**
  store void (i8*)* %0, void (i8*)** %4, align 8, !tbaa !42
  %5 = getelementptr inbounds i8, i8* %3, i64 8
  %6 = bitcast i8* %5 to i8**
  store i8* %1, i8** %6, align 8, !tbaa !45
  %7 = getelementptr inbounds i8, i8* %3, i64 16
  %8 = bitcast i8* %7 to i64*
  store i64 0, i64* %8, align 8, !tbaa !46
  %9 = tail call i32 @pthread_create(i64* nonnull %8, i8* null, i8* (i8*)* nonnull @_ZN6Halide7Runtime8Internal19spawn_thread_helperEPv, i8* %3) #13
  %10 = bitcast i8* %3 to %struct.halide_thread*
  ret %struct.halide_thread* %10
}

; Function Attrs: nounwind
define weak void @halide_cond_broadcast(%struct.halide_mutex*) local_unnamed_addr #0 {
  %2 = alloca %"struct.Halide::Runtime::Internal::Synchronization::wait_parking_control", align 8
  %3 = getelementptr inbounds %struct.halide_mutex, %struct.halide_mutex* %0, i64 0, i32 0, i64 0
  %4 = load atomic i64, i64* %3 monotonic, align 8
  %5 = icmp eq i64 %4, 0
  br i1 %5, label %18, label %6

; <label>:6:                                      ; preds = %1
  %7 = bitcast %"struct.Halide::Runtime::Internal::Synchronization::wait_parking_control"* %2 to i8*
  call void @llvm.lifetime.start.p0i8(i64 48, i8* nonnull %7) #14
  %8 = inttoptr i64 %4 to %"class.Halide::Runtime::Internal::Synchronization::word_lock"*
  %9 = getelementptr inbounds %"struct.Halide::Runtime::Internal::Synchronization::wait_parking_control", %"struct.Halide::Runtime::Internal::Synchronization::wait_parking_control"* %2, i64 0, i32 0, i32 0
  %10 = getelementptr inbounds %"struct.Halide::Runtime::Internal::Synchronization::wait_parking_control", %"struct.Halide::Runtime::Internal::Synchronization::wait_parking_control"* %2, i64 0, i32 0, i32 1
  store void (i8*)* @_ZN6Halide7Runtime8Internal15Synchronization28parking_control_before_sleepEPv, void (i8*)** %10, align 8, !tbaa !35
  %11 = getelementptr inbounds %"struct.Halide::Runtime::Internal::Synchronization::wait_parking_control", %"struct.Halide::Runtime::Internal::Synchronization::wait_parking_control"* %2, i64 0, i32 0, i32 2
  store i64 (i8*, i32, i1)* @_ZN6Halide7Runtime8Internal15Synchronization22parking_control_unparkEPvib, i64 (i8*, i32, i1)** %11, align 8, !tbaa !41
  %12 = getelementptr inbounds %"struct.Halide::Runtime::Internal::Synchronization::wait_parking_control", %"struct.Halide::Runtime::Internal::Synchronization::wait_parking_control"* %2, i64 0, i32 0, i32 3
  %13 = getelementptr inbounds %"struct.Halide::Runtime::Internal::Synchronization::wait_parking_control", %"struct.Halide::Runtime::Internal::Synchronization::wait_parking_control"* %2, i64 0, i32 1
  store i64* %3, i64** %13, align 8, !tbaa !47
  %14 = getelementptr inbounds %"struct.Halide::Runtime::Internal::Synchronization::wait_parking_control", %"struct.Halide::Runtime::Internal::Synchronization::wait_parking_control"* %2, i64 0, i32 2
  store %"class.Halide::Runtime::Internal::Synchronization::word_lock"* %8, %"class.Halide::Runtime::Internal::Synchronization::word_lock"** %14, align 8, !tbaa !49
  store i1 (i8*, %"struct.Halide::Runtime::Internal::Synchronization::validate_action"*)* @_ZN6Halide7Runtime8Internal15Synchronization34broadcast_parking_control_validateEPvRNS2_15validate_actionE, i1 (i8*, %"struct.Halide::Runtime::Internal::Synchronization::validate_action"*)** %9, align 8, !tbaa !40
  store void (i8*, %"struct.Halide::Runtime::Internal::Synchronization::validate_action"*, i1, i1)* @_ZN6Halide7Runtime8Internal15Synchronization42broadcast_parking_control_requeue_callbackEPvRKNS2_15validate_actionEbb, void (i8*, %"struct.Halide::Runtime::Internal::Synchronization::validate_action"*, i1, i1)** %12, align 8, !tbaa !37
  %15 = ptrtoint %struct.halide_mutex* %0 to i64
  %16 = getelementptr inbounds %"struct.Halide::Runtime::Internal::Synchronization::wait_parking_control", %"struct.Halide::Runtime::Internal::Synchronization::wait_parking_control"* %2, i64 0, i32 0
  %17 = call i32 @_ZN6Halide7Runtime8Internal15Synchronization14unpark_requeueEyyRNS2_15parking_controlEy(i64 %15, i64 %4, %"struct.Halide::Runtime::Internal::Synchronization::parking_control"* nonnull dereferenceable(32) %16, i64 0) #13
  call void @llvm.lifetime.end.p0i8(i64 48, i8* nonnull %7) #14
  br label %18

; <label>:18:                                     ; preds = %6, %1
  ret void
}

; Function Attrs: nounwind
define linkonce void @_ZN6Halide7Runtime8Internal28worker_thread_already_lockedEPNS1_4workE(%"struct.Halide::Runtime::Internal::work"*) local_unnamed_addr #0 {
  %2 = getelementptr inbounds %"struct.Halide::Runtime::Internal::work", %"struct.Halide::Runtime::Internal::work"* %0, i64 0, i32 6
  %3 = icmp eq %"struct.Halide::Runtime::Internal::work"* %0, null
  %4 = getelementptr inbounds %"struct.Halide::Runtime::Internal::work", %"struct.Halide::Runtime::Internal::work"* %0, i64 0, i32 3
  %5 = getelementptr inbounds %"struct.Halide::Runtime::Internal::work", %"struct.Halide::Runtime::Internal::work"* %0, i64 0, i32 4
  br i1 %3, label %6, label %9

; <label>:6:                                      ; preds = %1
  %7 = load i8, i8* getelementptr inbounds (%"struct.Halide::Runtime::Internal::work_queue_t", %"struct.Halide::Runtime::Internal::work_queue_t"* @_ZN6Halide7Runtime8Internal10work_queueE, i64 0, i32 11), align 4, !tbaa !50, !range !10
  %8 = icmp eq i8 %7, 0
  br i1 %8, label %56, label %104

; <label>:9:                                      ; preds = %55, %1
  %10 = load i32, i32* %4, align 8, !tbaa !27
  %11 = load i32, i32* %5, align 4, !tbaa !28
  %12 = icmp slt i32 %10, %11
  br i1 %12, label %16, label %13

; <label>:13:                                     ; preds = %9
  %14 = load i32, i32* %2, align 8, !tbaa !31
  %15 = icmp sgt i32 %14, 0
  br i1 %15, label %16, label %104

; <label>:16:                                     ; preds = %13, %9
  %17 = load %"struct.Halide::Runtime::Internal::work"*, %"struct.Halide::Runtime::Internal::work"** getelementptr inbounds (%"struct.Halide::Runtime::Internal::work_queue_t", %"struct.Halide::Runtime::Internal::work_queue_t"* @_ZN6Halide7Runtime8Internal10work_queueE, i64 0, i32 3), align 8, !tbaa !32
  %18 = icmp eq %"struct.Halide::Runtime::Internal::work"* %17, null
  br i1 %18, label %54, label %19

; <label>:19:                                     ; preds = %16
  %20 = getelementptr inbounds %"struct.Halide::Runtime::Internal::work", %"struct.Halide::Runtime::Internal::work"* %17, i64 0, i32 1
  %21 = load i32 (i8*, i32, i8*)*, i32 (i8*, i32, i8*)** %20, align 8
  %22 = getelementptr inbounds %"struct.Halide::Runtime::Internal::work", %"struct.Halide::Runtime::Internal::work"* %17, i64 0, i32 2
  %23 = load i8*, i8** %22, align 8
  %24 = getelementptr inbounds %"struct.Halide::Runtime::Internal::work", %"struct.Halide::Runtime::Internal::work"* %17, i64 0, i32 3
  %25 = load i32, i32* %24, align 8
  %26 = getelementptr inbounds %"struct.Halide::Runtime::Internal::work", %"struct.Halide::Runtime::Internal::work"* %17, i64 0, i32 5
  %27 = load i8*, i8** %26, align 8
  %28 = add nsw i32 %25, 1
  store i32 %28, i32* %24, align 8, !tbaa !27
  %29 = getelementptr inbounds %"struct.Halide::Runtime::Internal::work", %"struct.Halide::Runtime::Internal::work"* %17, i64 0, i32 4
  %30 = load i32, i32* %29, align 4, !tbaa !28
  %31 = icmp eq i32 %28, %30
  br i1 %31, label %32, label %35

; <label>:32:                                     ; preds = %19
  %33 = bitcast %"struct.Halide::Runtime::Internal::work"* %17 to i64*
  %34 = load i64, i64* %33, align 8, !tbaa !34
  store i64 %34, i64* bitcast (%"struct.Halide::Runtime::Internal::work"** getelementptr inbounds (%"struct.Halide::Runtime::Internal::work_queue_t", %"struct.Halide::Runtime::Internal::work_queue_t"* @_ZN6Halide7Runtime8Internal10work_queueE, i64 0, i32 3) to i64*), align 8, !tbaa !32
  br label %35

; <label>:35:                                     ; preds = %32, %19
  %36 = getelementptr inbounds %"struct.Halide::Runtime::Internal::work", %"struct.Halide::Runtime::Internal::work"* %17, i64 0, i32 6
  %37 = load i32, i32* %36, align 8, !tbaa !31
  %38 = add nsw i32 %37, 1
  store i32 %38, i32* %36, align 8, !tbaa !31
  tail call void @halide_mutex_unlock(%struct.halide_mutex* getelementptr inbounds (%"struct.Halide::Runtime::Internal::work_queue_t", %"struct.Halide::Runtime::Internal::work_queue_t"* @_ZN6Halide7Runtime8Internal10work_queueE, i64 0, i32 0)) #15
  %39 = tail call i32 @halide_do_task(i8* %23, i32 (i8*, i32, i8*)* %21, i32 %25, i8* %27) #15
  tail call void @halide_mutex_lock(%struct.halide_mutex* getelementptr inbounds (%"struct.Halide::Runtime::Internal::work_queue_t", %"struct.Halide::Runtime::Internal::work_queue_t"* @_ZN6Halide7Runtime8Internal10work_queueE, i64 0, i32 0)) #15
  %40 = icmp eq i32 %39, 0
  br i1 %40, label %43, label %41

; <label>:41:                                     ; preds = %35
  %42 = getelementptr inbounds %"struct.Halide::Runtime::Internal::work", %"struct.Halide::Runtime::Internal::work"* %17, i64 0, i32 7
  store i32 %39, i32* %42, align 4, !tbaa !30
  br label %43

; <label>:43:                                     ; preds = %41, %35
  %44 = load i32, i32* %36, align 8, !tbaa !31
  %45 = add nsw i32 %44, -1
  store i32 %45, i32* %36, align 8, !tbaa !31
  %46 = load i32, i32* %24, align 8, !tbaa !27
  %47 = load i32, i32* %29, align 4, !tbaa !28
  %48 = icmp slt i32 %46, %47
  br i1 %48, label %55, label %49

; <label>:49:                                     ; preds = %43
  %50 = icmp sgt i32 %44, 1
  %51 = icmp eq %"struct.Halide::Runtime::Internal::work"* %17, %0
  %52 = or i1 %51, %50
  br i1 %52, label %55, label %53

; <label>:53:                                     ; preds = %49
  tail call void @halide_cond_broadcast(%struct.halide_mutex* getelementptr inbounds (%"struct.Halide::Runtime::Internal::work_queue_t", %"struct.Halide::Runtime::Internal::work_queue_t"* @_ZN6Halide7Runtime8Internal10work_queueE, i64 0, i32 6)) #15
  br label %55

; <label>:54:                                     ; preds = %16
  tail call void @halide_cond_wait(%struct.halide_mutex* getelementptr inbounds (%"struct.Halide::Runtime::Internal::work_queue_t", %"struct.Halide::Runtime::Internal::work_queue_t"* @_ZN6Halide7Runtime8Internal10work_queueE, i64 0, i32 6), %struct.halide_mutex* getelementptr inbounds (%"struct.Halide::Runtime::Internal::work_queue_t", %"struct.Halide::Runtime::Internal::work_queue_t"* @_ZN6Halide7Runtime8Internal10work_queueE, i64 0, i32 0)) #15
  br label %55

; <label>:55:                                     ; preds = %54, %53, %49, %43
  br label %9

; <label>:56:                                     ; preds = %101, %6
  %57 = load %"struct.Halide::Runtime::Internal::work"*, %"struct.Halide::Runtime::Internal::work"** getelementptr inbounds (%"struct.Halide::Runtime::Internal::work_queue_t", %"struct.Halide::Runtime::Internal::work_queue_t"* @_ZN6Halide7Runtime8Internal10work_queueE, i64 0, i32 3), align 8, !tbaa !32
  %58 = icmp eq %"struct.Halide::Runtime::Internal::work"* %57, null
  br i1 %58, label %59, label %68

; <label>:59:                                     ; preds = %56
  %60 = load i32, i32* getelementptr inbounds (%"struct.Halide::Runtime::Internal::work_queue_t", %"struct.Halide::Runtime::Internal::work_queue_t"* @_ZN6Halide7Runtime8Internal10work_queueE, i64 0, i32 4), align 8, !tbaa !23
  %61 = load i32, i32* getelementptr inbounds (%"struct.Halide::Runtime::Internal::work_queue_t", %"struct.Halide::Runtime::Internal::work_queue_t"* @_ZN6Halide7Runtime8Internal10work_queueE, i64 0, i32 5), align 4, !tbaa !33
  %62 = icmp sgt i32 %60, %61
  br i1 %62, label %64, label %63

; <label>:63:                                     ; preds = %59
  tail call void @halide_cond_wait(%struct.halide_mutex* getelementptr inbounds (%"struct.Halide::Runtime::Internal::work_queue_t", %"struct.Halide::Runtime::Internal::work_queue_t"* @_ZN6Halide7Runtime8Internal10work_queueE, i64 0, i32 7), %struct.halide_mutex* getelementptr inbounds (%"struct.Halide::Runtime::Internal::work_queue_t", %"struct.Halide::Runtime::Internal::work_queue_t"* @_ZN6Halide7Runtime8Internal10work_queueE, i64 0, i32 0)) #15
  br label %101

; <label>:64:                                     ; preds = %59
  %65 = add nsw i32 %60, -1
  store i32 %65, i32* getelementptr inbounds (%"struct.Halide::Runtime::Internal::work_queue_t", %"struct.Halide::Runtime::Internal::work_queue_t"* @_ZN6Halide7Runtime8Internal10work_queueE, i64 0, i32 4), align 8, !tbaa !23
  tail call void @halide_cond_wait(%struct.halide_mutex* getelementptr inbounds (%"struct.Halide::Runtime::Internal::work_queue_t", %"struct.Halide::Runtime::Internal::work_queue_t"* @_ZN6Halide7Runtime8Internal10work_queueE, i64 0, i32 8), %struct.halide_mutex* getelementptr inbounds (%"struct.Halide::Runtime::Internal::work_queue_t", %"struct.Halide::Runtime::Internal::work_queue_t"* @_ZN6Halide7Runtime8Internal10work_queueE, i64 0, i32 0)) #15
  %66 = load i32, i32* getelementptr inbounds (%"struct.Halide::Runtime::Internal::work_queue_t", %"struct.Halide::Runtime::Internal::work_queue_t"* @_ZN6Halide7Runtime8Internal10work_queueE, i64 0, i32 4), align 8, !tbaa !23
  %67 = add nsw i32 %66, 1
  store i32 %67, i32* getelementptr inbounds (%"struct.Halide::Runtime::Internal::work_queue_t", %"struct.Halide::Runtime::Internal::work_queue_t"* @_ZN6Halide7Runtime8Internal10work_queueE, i64 0, i32 4), align 8, !tbaa !23
  br label %101

; <label>:68:                                     ; preds = %56
  %69 = getelementptr inbounds %"struct.Halide::Runtime::Internal::work", %"struct.Halide::Runtime::Internal::work"* %57, i64 0, i32 1
  %70 = load i32 (i8*, i32, i8*)*, i32 (i8*, i32, i8*)** %69, align 8
  %71 = getelementptr inbounds %"struct.Halide::Runtime::Internal::work", %"struct.Halide::Runtime::Internal::work"* %57, i64 0, i32 2
  %72 = load i8*, i8** %71, align 8
  %73 = getelementptr inbounds %"struct.Halide::Runtime::Internal::work", %"struct.Halide::Runtime::Internal::work"* %57, i64 0, i32 3
  %74 = load i32, i32* %73, align 8
  %75 = getelementptr inbounds %"struct.Halide::Runtime::Internal::work", %"struct.Halide::Runtime::Internal::work"* %57, i64 0, i32 5
  %76 = load i8*, i8** %75, align 8
  %77 = add nsw i32 %74, 1
  store i32 %77, i32* %73, align 8, !tbaa !27
  %78 = getelementptr inbounds %"struct.Halide::Runtime::Internal::work", %"struct.Halide::Runtime::Internal::work"* %57, i64 0, i32 4
  %79 = load i32, i32* %78, align 4, !tbaa !28
  %80 = icmp eq i32 %77, %79
  br i1 %80, label %81, label %84

; <label>:81:                                     ; preds = %68
  %82 = bitcast %"struct.Halide::Runtime::Internal::work"* %57 to i64*
  %83 = load i64, i64* %82, align 8, !tbaa !34
  store i64 %83, i64* bitcast (%"struct.Halide::Runtime::Internal::work"** getelementptr inbounds (%"struct.Halide::Runtime::Internal::work_queue_t", %"struct.Halide::Runtime::Internal::work_queue_t"* @_ZN6Halide7Runtime8Internal10work_queueE, i64 0, i32 3) to i64*), align 8, !tbaa !32
  br label %84

; <label>:84:                                     ; preds = %81, %68
  %85 = getelementptr inbounds %"struct.Halide::Runtime::Internal::work", %"struct.Halide::Runtime::Internal::work"* %57, i64 0, i32 6
  %86 = load i32, i32* %85, align 8, !tbaa !31
  %87 = add nsw i32 %86, 1
  store i32 %87, i32* %85, align 8, !tbaa !31
  tail call void @halide_mutex_unlock(%struct.halide_mutex* getelementptr inbounds (%"struct.Halide::Runtime::Internal::work_queue_t", %"struct.Halide::Runtime::Internal::work_queue_t"* @_ZN6Halide7Runtime8Internal10work_queueE, i64 0, i32 0)) #15
  %88 = tail call i32 @halide_do_task(i8* %72, i32 (i8*, i32, i8*)* %70, i32 %74, i8* %76) #15
  tail call void @halide_mutex_lock(%struct.halide_mutex* getelementptr inbounds (%"struct.Halide::Runtime::Internal::work_queue_t", %"struct.Halide::Runtime::Internal::work_queue_t"* @_ZN6Halide7Runtime8Internal10work_queueE, i64 0, i32 0)) #15
  %89 = icmp eq i32 %88, 0
  br i1 %89, label %92, label %90

; <label>:90:                                     ; preds = %84
  %91 = getelementptr inbounds %"struct.Halide::Runtime::Internal::work", %"struct.Halide::Runtime::Internal::work"* %57, i64 0, i32 7
  store i32 %88, i32* %91, align 4, !tbaa !30
  br label %92

; <label>:92:                                     ; preds = %90, %84
  %93 = load i32, i32* %85, align 8, !tbaa !31
  %94 = add nsw i32 %93, -1
  store i32 %94, i32* %85, align 8, !tbaa !31
  %95 = load i32, i32* %73, align 8, !tbaa !27
  %96 = load i32, i32* %78, align 4, !tbaa !28
  %97 = icmp slt i32 %95, %96
  %98 = icmp sgt i32 %93, 1
  %99 = or i1 %97, %98
  br i1 %99, label %101, label %100

; <label>:100:                                    ; preds = %92
  tail call void @halide_cond_broadcast(%struct.halide_mutex* getelementptr inbounds (%"struct.Halide::Runtime::Internal::work_queue_t", %"struct.Halide::Runtime::Internal::work_queue_t"* @_ZN6Halide7Runtime8Internal10work_queueE, i64 0, i32 6)) #15
  br label %101

; <label>:101:                                    ; preds = %100, %92, %64, %63
  %102 = load i8, i8* getelementptr inbounds (%"struct.Halide::Runtime::Internal::work_queue_t", %"struct.Halide::Runtime::Internal::work_queue_t"* @_ZN6Halide7Runtime8Internal10work_queueE, i64 0, i32 11), align 4, !tbaa !50, !range !10
  %103 = icmp eq i8 %102, 0
  br i1 %103, label %56, label %104

; <label>:104:                                    ; preds = %101, %13, %6
  ret void
}

; Function Attrs: nounwind
define weak void @halide_mutex_unlock(%struct.halide_mutex*) local_unnamed_addr #0 {
  %2 = alloca %"struct.Halide::Runtime::Internal::Synchronization::mutex_parking_control", align 8
  %3 = getelementptr inbounds %struct.halide_mutex, %struct.halide_mutex* %0, i64 0, i32 0, i64 0
  %4 = cmpxchg weak i64* %3, i64 1, i64 0 release monotonic
  %5 = extractvalue { i64, i1 } %4, 1
  br i1 %5, label %19, label %6

; <label>:6:                                      ; preds = %1
  %7 = cmpxchg i64* %3, i64 1, i64 0 release monotonic
  %8 = extractvalue { i64, i1 } %7, 1
  br i1 %8, label %19, label %9

; <label>:9:                                      ; preds = %6
  %10 = bitcast %"struct.Halide::Runtime::Internal::Synchronization::mutex_parking_control"* %2 to i8*
  call void @llvm.lifetime.start.p0i8(i64 40, i8* nonnull %10) #14
  %11 = getelementptr inbounds %"struct.Halide::Runtime::Internal::Synchronization::mutex_parking_control", %"struct.Halide::Runtime::Internal::Synchronization::mutex_parking_control"* %2, i64 0, i32 0, i32 0
  %12 = getelementptr inbounds %"struct.Halide::Runtime::Internal::Synchronization::mutex_parking_control", %"struct.Halide::Runtime::Internal::Synchronization::mutex_parking_control"* %2, i64 0, i32 0, i32 1
  store void (i8*)* @_ZN6Halide7Runtime8Internal15Synchronization28parking_control_before_sleepEPv, void (i8*)** %12, align 8, !tbaa !35
  %13 = getelementptr inbounds %"struct.Halide::Runtime::Internal::Synchronization::mutex_parking_control", %"struct.Halide::Runtime::Internal::Synchronization::mutex_parking_control"* %2, i64 0, i32 0, i32 2
  %14 = getelementptr inbounds %"struct.Halide::Runtime::Internal::Synchronization::mutex_parking_control", %"struct.Halide::Runtime::Internal::Synchronization::mutex_parking_control"* %2, i64 0, i32 0, i32 3
  store void (i8*, %"struct.Halide::Runtime::Internal::Synchronization::validate_action"*, i1, i1)* @_ZN6Halide7Runtime8Internal15Synchronization32parking_control_requeue_callbackEPvRKNS2_15validate_actionEbb, void (i8*, %"struct.Halide::Runtime::Internal::Synchronization::validate_action"*, i1, i1)** %14, align 8, !tbaa !37
  %15 = getelementptr inbounds %"struct.Halide::Runtime::Internal::Synchronization::mutex_parking_control", %"struct.Halide::Runtime::Internal::Synchronization::mutex_parking_control"* %2, i64 0, i32 1
  store i64* %3, i64** %15, align 8, !tbaa !38
  store i1 (i8*, %"struct.Halide::Runtime::Internal::Synchronization::validate_action"*)* @_ZN6Halide7Runtime8Internal15Synchronization30mutex_parking_control_validateEPvRNS2_15validate_actionE, i1 (i8*, %"struct.Halide::Runtime::Internal::Synchronization::validate_action"*)** %11, align 8, !tbaa !40
  store i64 (i8*, i32, i1)* @_ZN6Halide7Runtime8Internal15Synchronization28mutex_parking_control_unparkEPvib, i64 (i8*, i32, i1)** %13, align 8, !tbaa !41
  %16 = ptrtoint %struct.halide_mutex* %0 to i64
  %17 = getelementptr inbounds %"struct.Halide::Runtime::Internal::Synchronization::mutex_parking_control", %"struct.Halide::Runtime::Internal::Synchronization::mutex_parking_control"* %2, i64 0, i32 0
  %18 = call i64 @_ZN6Halide7Runtime8Internal15Synchronization10unpark_oneEyRNS2_15parking_controlE(i64 %16, %"struct.Halide::Runtime::Internal::Synchronization::parking_control"* nonnull dereferenceable(32) %17) #13
  call void @llvm.lifetime.end.p0i8(i64 40, i8* nonnull %10) #14
  br label %19

; <label>:19:                                     ; preds = %9, %6, %1
  ret void
}

; Function Attrs: norecurse nounwind
define linkonce void @_ZN6Halide7Runtime8Internal15Synchronization28parking_control_before_sleepEPv(i8*) #2 {
  ret void
}

; Function Attrs: norecurse nounwind
define linkonce void @_ZN6Halide7Runtime8Internal15Synchronization32parking_control_requeue_callbackEPvRKNS2_15validate_actionEbb(i8*, %"struct.Halide::Runtime::Internal::Synchronization::validate_action"* dereferenceable(16), i1 zeroext, i1 zeroext) #2 {
  ret void
}

; Function Attrs: nounwind
define linkonce zeroext i1 @_ZN6Halide7Runtime8Internal15Synchronization30mutex_parking_control_validateEPvRNS2_15validate_actionE(i8*, %"struct.Halide::Runtime::Internal::Synchronization::validate_action"* dereferenceable(16)) #0 {
  %3 = getelementptr inbounds i8, i8* %0, i64 32
  %4 = bitcast i8* %3 to i64**
  %5 = load i64*, i64** %4, align 8, !tbaa !38
  %6 = load atomic i64, i64* %5 monotonic, align 8
  %7 = icmp eq i64 %6, 3
  ret i1 %7
}

; Function Attrs: nounwind
define linkonce i64 @_ZN6Halide7Runtime8Internal15Synchronization28mutex_parking_control_unparkEPvib(i8*, i32, i1 zeroext) #0 {
  %4 = select i1 %2, i64 2, i64 0
  %5 = getelementptr inbounds i8, i8* %0, i64 32
  %6 = bitcast i8* %5 to i64**
  %7 = load i64*, i64** %6, align 8, !tbaa !38
  store atomic i64 %4, i64* %7 release, align 8
  ret i64 0
}

; Function Attrs: nounwind
define linkonce i64 @_ZN6Halide7Runtime8Internal15Synchronization10unpark_oneEyRNS2_15parking_controlE(i64, %"struct.Halide::Runtime::Internal::Synchronization::parking_control"* dereferenceable(32)) local_unnamed_addr #0 {
  %3 = tail call dereferenceable(24) %"struct.Halide::Runtime::Internal::Synchronization::hash_bucket"* @_ZN6Halide7Runtime8Internal15Synchronization11lock_bucketEy(i64 %0) #15
  %4 = getelementptr inbounds %"struct.Halide::Runtime::Internal::Synchronization::hash_bucket", %"struct.Halide::Runtime::Internal::Synchronization::hash_bucket"* %3, i64 0, i32 1
  %5 = load %"struct.Halide::Runtime::Internal::Synchronization::queue_data"*, %"struct.Halide::Runtime::Internal::Synchronization::queue_data"** %4, align 8, !tbaa !3
  br label %6

; <label>:6:                                      ; preds = %11, %2
  %7 = phi %"struct.Halide::Runtime::Internal::Synchronization::queue_data"** [ %4, %2 ], [ %15, %11 ]
  %8 = phi %"struct.Halide::Runtime::Internal::Synchronization::queue_data"* [ null, %2 ], [ %9, %11 ]
  %9 = phi %"struct.Halide::Runtime::Internal::Synchronization::queue_data"* [ %5, %2 ], [ %16, %11 ]
  %10 = icmp eq %"struct.Halide::Runtime::Internal::Synchronization::queue_data"* %9, null
  br i1 %10, label %60, label %11

; <label>:11:                                     ; preds = %6
  %12 = getelementptr inbounds %"struct.Halide::Runtime::Internal::Synchronization::queue_data", %"struct.Halide::Runtime::Internal::Synchronization::queue_data"* %9, i64 0, i32 1
  %13 = load atomic i64, i64* %12 monotonic, align 8
  %14 = icmp eq i64 %13, %0
  %15 = getelementptr inbounds %"struct.Halide::Runtime::Internal::Synchronization::queue_data", %"struct.Halide::Runtime::Internal::Synchronization::queue_data"* %9, i64 0, i32 2
  %16 = load %"struct.Halide::Runtime::Internal::Synchronization::queue_data"*, %"struct.Halide::Runtime::Internal::Synchronization::queue_data"** %15, align 8, !tbaa !51
  br i1 %14, label %17, label %6

; <label>:17:                                     ; preds = %11
  store %"struct.Halide::Runtime::Internal::Synchronization::queue_data"* %16, %"struct.Halide::Runtime::Internal::Synchronization::queue_data"** %7, align 8, !tbaa !3
  %18 = getelementptr inbounds %"struct.Halide::Runtime::Internal::Synchronization::hash_bucket", %"struct.Halide::Runtime::Internal::Synchronization::hash_bucket"* %3, i64 0, i32 2
  %19 = load %"struct.Halide::Runtime::Internal::Synchronization::queue_data"*, %"struct.Halide::Runtime::Internal::Synchronization::queue_data"** %18, align 8, !tbaa !56
  %20 = icmp eq %"struct.Halide::Runtime::Internal::Synchronization::queue_data"* %19, %9
  br i1 %20, label %23, label %21

; <label>:21:                                     ; preds = %17
  %22 = icmp eq %"struct.Halide::Runtime::Internal::Synchronization::queue_data"* %16, null
  br i1 %22, label %36, label %24

; <label>:23:                                     ; preds = %17
  store %"struct.Halide::Runtime::Internal::Synchronization::queue_data"* %8, %"struct.Halide::Runtime::Internal::Synchronization::queue_data"** %18, align 8, !tbaa !56
  br label %36

; <label>:24:                                     ; preds = %24, %21
  %25 = phi %"struct.Halide::Runtime::Internal::Synchronization::queue_data"* [ %30, %24 ], [ %16, %21 ]
  %26 = getelementptr inbounds %"struct.Halide::Runtime::Internal::Synchronization::queue_data", %"struct.Halide::Runtime::Internal::Synchronization::queue_data"* %25, i64 0, i32 1
  %27 = load atomic i64, i64* %26 monotonic, align 8
  %28 = icmp eq i64 %27, %0
  %29 = getelementptr inbounds %"struct.Halide::Runtime::Internal::Synchronization::queue_data", %"struct.Halide::Runtime::Internal::Synchronization::queue_data"* %25, i64 0, i32 2
  %30 = load %"struct.Halide::Runtime::Internal::Synchronization::queue_data"*, %"struct.Halide::Runtime::Internal::Synchronization::queue_data"** %29, align 8, !tbaa !51
  %31 = icmp ne %"struct.Halide::Runtime::Internal::Synchronization::queue_data"* %30, null
  %32 = xor i1 %28, true
  %33 = and i1 %31, %32
  br i1 %33, label %24, label %34

; <label>:34:                                     ; preds = %24
  %35 = zext i1 %28 to i8
  br label %36

; <label>:36:                                     ; preds = %34, %23, %21
  %37 = phi i8 [ 0, %23 ], [ %35, %34 ], [ 0, %21 ]
  %38 = getelementptr inbounds %"struct.Halide::Runtime::Internal::Synchronization::parking_control", %"struct.Halide::Runtime::Internal::Synchronization::parking_control"* %1, i64 0, i32 2
  %39 = load i64 (i8*, i32, i1)*, i64 (i8*, i32, i1)** %38, align 8, !tbaa !41
  %40 = bitcast %"struct.Halide::Runtime::Internal::Synchronization::parking_control"* %1 to i8*
  %41 = icmp ne i8 %37, 0
  %42 = tail call i64 %39(i8* nonnull %40, i32 1, i1 zeroext %41) #13
  %43 = getelementptr inbounds %"struct.Halide::Runtime::Internal::Synchronization::queue_data", %"struct.Halide::Runtime::Internal::Synchronization::queue_data"* %9, i64 0, i32 3
  store i64 %42, i64* %43, align 8, !tbaa !59
  %44 = getelementptr inbounds %"struct.Halide::Runtime::Internal::Synchronization::queue_data", %"struct.Halide::Runtime::Internal::Synchronization::queue_data"* %9, i64 0, i32 0, i32 0
  %45 = tail call i32 @pthread_mutex_lock(%struct.pthread_mutex_t* nonnull %44) #13
  %46 = getelementptr inbounds %"struct.Halide::Runtime::Internal::Synchronization::hash_bucket", %"struct.Halide::Runtime::Internal::Synchronization::hash_bucket"* %3, i64 0, i32 0, i32 0
  %47 = atomicrmw and i64* %46, i64 -2 release
  %48 = and i64 %47, 2
  %49 = icmp eq i64 %48, 0
  %50 = icmp ugt i64 %47, 3
  %51 = and i1 %50, %49
  br i1 %51, label %52, label %54

; <label>:52:                                     ; preds = %36
  %53 = getelementptr inbounds %"struct.Halide::Runtime::Internal::Synchronization::hash_bucket", %"struct.Halide::Runtime::Internal::Synchronization::hash_bucket"* %3, i64 0, i32 0
  tail call void @_ZN6Halide7Runtime8Internal15Synchronization9word_lock11unlock_fullEv(%"class.Halide::Runtime::Internal::Synchronization::word_lock"* nonnull %53) #13
  br label %54

; <label>:54:                                     ; preds = %52, %36
  %55 = getelementptr inbounds %"struct.Halide::Runtime::Internal::Synchronization::queue_data", %"struct.Halide::Runtime::Internal::Synchronization::queue_data"* %9, i64 0, i32 0, i32 2
  store i8 0, i8* %55, align 8, !tbaa !60
  %56 = getelementptr inbounds %"struct.Halide::Runtime::Internal::Synchronization::queue_data", %"struct.Halide::Runtime::Internal::Synchronization::queue_data"* %9, i64 0, i32 0, i32 1
  %57 = tail call i32 @pthread_cond_signal(%struct.pthread_mutex_t* nonnull %56) #13
  %58 = tail call i32 @pthread_mutex_unlock(%struct.pthread_mutex_t* nonnull %44) #13
  %59 = zext i8 %37 to i64
  br label %73

; <label>:60:                                     ; preds = %6
  %61 = getelementptr inbounds %"struct.Halide::Runtime::Internal::Synchronization::parking_control", %"struct.Halide::Runtime::Internal::Synchronization::parking_control"* %1, i64 0, i32 2
  %62 = load i64 (i8*, i32, i1)*, i64 (i8*, i32, i1)** %61, align 8, !tbaa !41
  %63 = bitcast %"struct.Halide::Runtime::Internal::Synchronization::parking_control"* %1 to i8*
  %64 = tail call i64 %62(i8* nonnull %63, i32 0, i1 zeroext false) #13
  %65 = getelementptr inbounds %"struct.Halide::Runtime::Internal::Synchronization::hash_bucket", %"struct.Halide::Runtime::Internal::Synchronization::hash_bucket"* %3, i64 0, i32 0, i32 0
  %66 = atomicrmw and i64* %65, i64 -2 release
  %67 = and i64 %66, 2
  %68 = icmp eq i64 %67, 0
  %69 = icmp ugt i64 %66, 3
  %70 = and i1 %69, %68
  br i1 %70, label %71, label %73

; <label>:71:                                     ; preds = %60
  %72 = getelementptr inbounds %"struct.Halide::Runtime::Internal::Synchronization::hash_bucket", %"struct.Halide::Runtime::Internal::Synchronization::hash_bucket"* %3, i64 0, i32 0
  tail call void @_ZN6Halide7Runtime8Internal15Synchronization9word_lock11unlock_fullEv(%"class.Halide::Runtime::Internal::Synchronization::word_lock"* nonnull %72) #13
  br label %73

; <label>:73:                                     ; preds = %71, %60, %54
  %74 = phi i64 [ %59, %54 ], [ 0, %60 ], [ 0, %71 ]
  ret i64 %74
}

; Function Attrs: nounwind
define linkonce dereferenceable(24) %"struct.Halide::Runtime::Internal::Synchronization::hash_bucket"* @_ZN6Halide7Runtime8Internal15Synchronization11lock_bucketEy(i64) local_unnamed_addr #0 {
  %2 = mul i64 %0, -7046029254386353131
  %3 = lshr i64 %2, 54
  %4 = getelementptr inbounds [1024 x %"struct.Halide::Runtime::Internal::Synchronization::hash_bucket"], [1024 x %"struct.Halide::Runtime::Internal::Synchronization::hash_bucket"]* bitcast ([24576 x i8]* @_ZN6Halide7Runtime8Internal15Synchronization13table_storageE to [1024 x %"struct.Halide::Runtime::Internal::Synchronization::hash_bucket"]*), i64 0, i64 %3
  %5 = getelementptr inbounds %"struct.Halide::Runtime::Internal::Synchronization::hash_bucket", %"struct.Halide::Runtime::Internal::Synchronization::hash_bucket"* %4, i64 0, i32 0, i32 0
  %6 = cmpxchg weak i64* %5, i64 0, i64 1 acquire monotonic
  %7 = extractvalue { i64, i1 } %6, 1
  br i1 %7, label %10, label %8

; <label>:8:                                      ; preds = %1
  %9 = getelementptr inbounds %"struct.Halide::Runtime::Internal::Synchronization::hash_bucket", %"struct.Halide::Runtime::Internal::Synchronization::hash_bucket"* %4, i64 0, i32 0
  tail call void @_ZN6Halide7Runtime8Internal15Synchronization9word_lock9lock_fullEv(%"class.Halide::Runtime::Internal::Synchronization::word_lock"* %9) #13
  br label %10

; <label>:10:                                     ; preds = %8, %1
  ret %"struct.Halide::Runtime::Internal::Synchronization::hash_bucket"* %4
}

declare i32 @pthread_mutex_lock(%struct.pthread_mutex_t*) local_unnamed_addr #1

; Function Attrs: nounwind
define linkonce void @_ZN6Halide7Runtime8Internal15Synchronization9word_lock11unlock_fullEv(%"class.Halide::Runtime::Internal::Synchronization::word_lock"*) local_unnamed_addr #0 align 2 {
  %2 = getelementptr inbounds %"class.Halide::Runtime::Internal::Synchronization::word_lock", %"class.Halide::Runtime::Internal::Synchronization::word_lock"* %0, i64 0, i32 0
  %3 = load atomic i64, i64* %2 monotonic, align 8
  br label %4

; <label>:4:                                      ; preds = %10, %1
  %5 = phi i64 [ %3, %1 ], [ %14, %10 ]
  %6 = and i64 %5, 2
  %7 = icmp ne i64 %6, 0
  %8 = icmp ult i64 %5, 4
  %9 = or i1 %8, %7
  br i1 %9, label %67, label %10

; <label>:10:                                     ; preds = %4
  %11 = or i64 %5, 2
  %12 = cmpxchg weak i64* %2, i64 %5, i64 %11 acquire monotonic
  %13 = extractvalue { i64, i1 } %12, 1
  %14 = extractvalue { i64, i1 } %12, 0
  br i1 %13, label %15, label %4

; <label>:15:                                     ; preds = %56, %10
  %16 = phi i64 [ %57, %56 ], [ %14, %10 ]
  %17 = and i64 %16, -4
  %18 = inttoptr i64 %17 to %"struct.Halide::Runtime::Internal::Synchronization::word_lock_queue_data"*
  %19 = getelementptr inbounds %"struct.Halide::Runtime::Internal::Synchronization::word_lock_queue_data", %"struct.Halide::Runtime::Internal::Synchronization::word_lock_queue_data"* %18, i64 0, i32 3
  %20 = load %"struct.Halide::Runtime::Internal::Synchronization::word_lock_queue_data"*, %"struct.Halide::Runtime::Internal::Synchronization::word_lock_queue_data"** %19, align 8, !tbaa !61
  %21 = icmp eq %"struct.Halide::Runtime::Internal::Synchronization::word_lock_queue_data"* %20, null
  br i1 %21, label %22, label %33

; <label>:22:                                     ; preds = %28, %15
  %23 = phi %"struct.Halide::Runtime::Internal::Synchronization::word_lock_queue_data"* [ %25, %28 ], [ %18, %15 ]
  %24 = getelementptr inbounds %"struct.Halide::Runtime::Internal::Synchronization::word_lock_queue_data", %"struct.Halide::Runtime::Internal::Synchronization::word_lock_queue_data"* %23, i64 0, i32 1
  %25 = load %"struct.Halide::Runtime::Internal::Synchronization::word_lock_queue_data"*, %"struct.Halide::Runtime::Internal::Synchronization::word_lock_queue_data"** %24, align 8, !tbaa !63
  %26 = icmp eq %"struct.Halide::Runtime::Internal::Synchronization::word_lock_queue_data"* %25, null
  br i1 %26, label %27, label %28

; <label>:27:                                     ; preds = %22
  tail call void @abort() #13
  br label %28

; <label>:28:                                     ; preds = %27, %22
  %29 = getelementptr inbounds %"struct.Halide::Runtime::Internal::Synchronization::word_lock_queue_data", %"struct.Halide::Runtime::Internal::Synchronization::word_lock_queue_data"* %25, i64 0, i32 2
  store %"struct.Halide::Runtime::Internal::Synchronization::word_lock_queue_data"* %23, %"struct.Halide::Runtime::Internal::Synchronization::word_lock_queue_data"** %29, align 8, !tbaa !64
  %30 = getelementptr inbounds %"struct.Halide::Runtime::Internal::Synchronization::word_lock_queue_data", %"struct.Halide::Runtime::Internal::Synchronization::word_lock_queue_data"* %25, i64 0, i32 3
  %31 = load %"struct.Halide::Runtime::Internal::Synchronization::word_lock_queue_data"*, %"struct.Halide::Runtime::Internal::Synchronization::word_lock_queue_data"** %30, align 8, !tbaa !61
  %32 = icmp eq %"struct.Halide::Runtime::Internal::Synchronization::word_lock_queue_data"* %31, null
  br i1 %32, label %22, label %33

; <label>:33:                                     ; preds = %28, %15
  %34 = phi %"struct.Halide::Runtime::Internal::Synchronization::word_lock_queue_data"* [ %20, %15 ], [ %31, %28 ]
  store %"struct.Halide::Runtime::Internal::Synchronization::word_lock_queue_data"* %34, %"struct.Halide::Runtime::Internal::Synchronization::word_lock_queue_data"** %19, align 8, !tbaa !61
  %35 = and i64 %16, 1
  %36 = icmp eq i64 %35, 0
  br i1 %36, label %43, label %37

; <label>:37:                                     ; preds = %33
  %38 = and i64 %16, -3
  %39 = cmpxchg weak i64* %2, i64 %16, i64 %38 acq_rel monotonic
  %40 = extractvalue { i64, i1 } %39, 1
  br i1 %40, label %67, label %41

; <label>:41:                                     ; preds = %37
  %42 = extractvalue { i64, i1 } %39, 0
  fence acquire
  br label %56

; <label>:43:                                     ; preds = %33
  %44 = getelementptr inbounds %"struct.Halide::Runtime::Internal::Synchronization::word_lock_queue_data", %"struct.Halide::Runtime::Internal::Synchronization::word_lock_queue_data"* %34, i64 0, i32 2
  %45 = load %"struct.Halide::Runtime::Internal::Synchronization::word_lock_queue_data"*, %"struct.Halide::Runtime::Internal::Synchronization::word_lock_queue_data"** %44, align 8, !tbaa !64
  %46 = icmp eq %"struct.Halide::Runtime::Internal::Synchronization::word_lock_queue_data"* %45, null
  br i1 %46, label %47, label %58

; <label>:47:                                     ; preds = %52, %43
  %48 = phi i64 [ %53, %52 ], [ %16, %43 ]
  %49 = and i64 %48, 1
  %50 = cmpxchg weak i64* %2, i64 %48, i64 %49 acq_rel monotonic
  %51 = extractvalue { i64, i1 } %50, 1
  br i1 %51, label %60, label %52

; <label>:52:                                     ; preds = %47
  %53 = extractvalue { i64, i1 } %50, 0
  %54 = icmp ult i64 %53, 4
  br i1 %54, label %47, label %55

; <label>:55:                                     ; preds = %52
  fence acquire
  br label %56

; <label>:56:                                     ; preds = %55, %41
  %57 = phi i64 [ %42, %41 ], [ %53, %55 ]
  br label %15

; <label>:58:                                     ; preds = %43
  store %"struct.Halide::Runtime::Internal::Synchronization::word_lock_queue_data"* %45, %"struct.Halide::Runtime::Internal::Synchronization::word_lock_queue_data"** %19, align 8, !tbaa !61
  %59 = atomicrmw and i64* %2, i64 -3 release
  br label %60

; <label>:60:                                     ; preds = %58, %47
  %61 = getelementptr inbounds %"struct.Halide::Runtime::Internal::Synchronization::word_lock_queue_data", %"struct.Halide::Runtime::Internal::Synchronization::word_lock_queue_data"* %34, i64 0, i32 0, i32 0
  %62 = tail call i32 @pthread_mutex_lock(%struct.pthread_mutex_t* nonnull %61) #13
  %63 = getelementptr inbounds %"struct.Halide::Runtime::Internal::Synchronization::word_lock_queue_data", %"struct.Halide::Runtime::Internal::Synchronization::word_lock_queue_data"* %34, i64 0, i32 0, i32 2
  store i8 0, i8* %63, align 8, !tbaa !60
  %64 = getelementptr inbounds %"struct.Halide::Runtime::Internal::Synchronization::word_lock_queue_data", %"struct.Halide::Runtime::Internal::Synchronization::word_lock_queue_data"* %34, i64 0, i32 0, i32 1
  %65 = tail call i32 @pthread_cond_signal(%struct.pthread_mutex_t* nonnull %64) #13
  %66 = tail call i32 @pthread_mutex_unlock(%struct.pthread_mutex_t* nonnull %61) #13
  br label %67

; <label>:67:                                     ; preds = %60, %37, %4
  ret void
}

declare i32 @pthread_cond_signal(%struct.pthread_mutex_t*) local_unnamed_addr #1

declare i32 @pthread_mutex_unlock(%struct.pthread_mutex_t*) local_unnamed_addr #1

; Function Attrs: nounwind
define linkonce void @_ZN6Halide7Runtime8Internal15Synchronization9word_lock9lock_fullEv(%"class.Halide::Runtime::Internal::Synchronization::word_lock"*) local_unnamed_addr #0 align 2 {
  %2 = alloca %"struct.Halide::Runtime::Internal::Synchronization::word_lock_queue_data", align 8
  %3 = getelementptr inbounds %"class.Halide::Runtime::Internal::Synchronization::word_lock", %"class.Halide::Runtime::Internal::Synchronization::word_lock"* %0, i64 0, i32 0
  %4 = load atomic i64, i64* %3 monotonic, align 8
  %5 = bitcast %"struct.Halide::Runtime::Internal::Synchronization::word_lock_queue_data"* %2 to i8*
  %6 = getelementptr inbounds %"struct.Halide::Runtime::Internal::Synchronization::word_lock_queue_data", %"struct.Halide::Runtime::Internal::Synchronization::word_lock_queue_data"* %2, i64 0, i32 0, i32 2
  %7 = getelementptr inbounds %"struct.Halide::Runtime::Internal::Synchronization::word_lock_queue_data", %"struct.Halide::Runtime::Internal::Synchronization::word_lock_queue_data"* %2, i64 0, i32 0, i32 0
  %8 = getelementptr inbounds %"struct.Halide::Runtime::Internal::Synchronization::word_lock_queue_data", %"struct.Halide::Runtime::Internal::Synchronization::word_lock_queue_data"* %2, i64 0, i32 0, i32 1
  %9 = getelementptr inbounds %"struct.Halide::Runtime::Internal::Synchronization::word_lock_queue_data", %"struct.Halide::Runtime::Internal::Synchronization::word_lock_queue_data"* %2, i64 0, i32 1
  %10 = getelementptr inbounds %"struct.Halide::Runtime::Internal::Synchronization::word_lock_queue_data", %"struct.Halide::Runtime::Internal::Synchronization::word_lock_queue_data"* %2, i64 0, i32 2
  %11 = getelementptr inbounds %"struct.Halide::Runtime::Internal::Synchronization::word_lock_queue_data", %"struct.Halide::Runtime::Internal::Synchronization::word_lock_queue_data"* %2, i64 0, i32 3
  %12 = ptrtoint %"struct.Halide::Runtime::Internal::Synchronization::word_lock_queue_data"* %2 to i64
  br label %13

; <label>:13:                                     ; preds = %37, %1
  %14 = phi i64 [ %4, %1 ], [ %38, %37 ]
  %15 = phi i32 [ 40, %1 ], [ %39, %37 ]
  %16 = and i64 %14, 1
  %17 = icmp eq i64 %16, 0
  br i1 %17, label %18, label %27

; <label>:18:                                     ; preds = %23, %13
  %19 = phi i64 [ %24, %23 ], [ %14, %13 ]
  %20 = or i64 %19, 1
  %21 = cmpxchg weak i64* %3, i64 %19, i64 %20 acquire monotonic
  %22 = extractvalue { i64, i1 } %21, 1
  br i1 %22, label %72, label %23

; <label>:23:                                     ; preds = %18
  %24 = extractvalue { i64, i1 } %21, 0
  %25 = and i64 %24, 1
  %26 = icmp eq i64 %25, 0
  br i1 %26, label %18, label %27

; <label>:27:                                     ; preds = %23, %13
  %28 = phi i64 [ %14, %13 ], [ %24, %23 ]
  %29 = icmp ugt i64 %28, 3
  %30 = icmp sgt i32 %15, 0
  %31 = and i1 %29, %30
  br i1 %31, label %32, label %40

; <label>:32:                                     ; preds = %27
  %33 = icmp sgt i32 %15, 1
  br i1 %33, label %34, label %40

; <label>:34:                                     ; preds = %32
  %35 = add nsw i32 %15, -1
  call void @_ZN6Halide7Runtime8Internal19halide_thread_yieldEv() #13
  %36 = load atomic i64, i64* %3 monotonic, align 8
  br label %37

; <label>:37:                                     ; preds = %67, %34
  %38 = phi i64 [ %68, %67 ], [ %36, %34 ]
  %39 = phi i32 [ %69, %67 ], [ %35, %34 ]
  br label %13

; <label>:40:                                     ; preds = %32, %27
  %41 = phi i32 [ 0, %32 ], [ %15, %27 ]
  call void @llvm.lifetime.start.p0i8(i64 160, i8* nonnull %5) #14
  store i8 0, i8* %6, align 8, !tbaa !60
  %42 = call i32 @pthread_mutex_init(%struct.pthread_mutex_t* nonnull %7, i8* null) #13
  %43 = call i32 @pthread_cond_init(%struct.pthread_mutex_t* nonnull %8, i8* null) #13
  store %"struct.Halide::Runtime::Internal::Synchronization::word_lock_queue_data"* null, %"struct.Halide::Runtime::Internal::Synchronization::word_lock_queue_data"** %9, align 8, !tbaa !63
  store %"struct.Halide::Runtime::Internal::Synchronization::word_lock_queue_data"* null, %"struct.Halide::Runtime::Internal::Synchronization::word_lock_queue_data"** %10, align 8, !tbaa !64
  store %"struct.Halide::Runtime::Internal::Synchronization::word_lock_queue_data"* null, %"struct.Halide::Runtime::Internal::Synchronization::word_lock_queue_data"** %11, align 8, !tbaa !61
  store i8 1, i8* %6, align 8, !tbaa !60
  %44 = and i64 %28, -4
  %45 = icmp eq i64 %44, 0
  br i1 %45, label %46, label %47

; <label>:46:                                     ; preds = %40
  store %"struct.Halide::Runtime::Internal::Synchronization::word_lock_queue_data"* %2, %"struct.Halide::Runtime::Internal::Synchronization::word_lock_queue_data"** %11, align 8, !tbaa !61
  br label %49

; <label>:47:                                     ; preds = %40
  %48 = inttoptr i64 %44 to %"struct.Halide::Runtime::Internal::Synchronization::word_lock_queue_data"*
  store %"struct.Halide::Runtime::Internal::Synchronization::word_lock_queue_data"* %48, %"struct.Halide::Runtime::Internal::Synchronization::word_lock_queue_data"** %9, align 8, !tbaa !63
  br label %49

; <label>:49:                                     ; preds = %47, %46
  %50 = and i64 %28, 3
  %51 = or i64 %50, %12
  %52 = cmpxchg weak i64* %3, i64 %28, i64 %51 release monotonic
  %53 = extractvalue { i64, i1 } %52, 1
  br i1 %53, label %56, label %54

; <label>:54:                                     ; preds = %49
  %55 = extractvalue { i64, i1 } %52, 0
  br label %67

; <label>:56:                                     ; preds = %49
  %57 = call i32 @pthread_mutex_lock(%struct.pthread_mutex_t* nonnull %7) #13
  %58 = load i8, i8* %6, align 8, !tbaa !60, !range !10
  %59 = icmp eq i8 %58, 0
  br i1 %59, label %64, label %60

; <label>:60:                                     ; preds = %60, %56
  %61 = call i32 @pthread_cond_wait(%struct.pthread_mutex_t* nonnull %8, %struct.pthread_mutex_t* nonnull %7) #13
  %62 = load i8, i8* %6, align 8, !tbaa !60, !range !10
  %63 = icmp eq i8 %62, 0
  br i1 %63, label %64, label %60

; <label>:64:                                     ; preds = %60, %56
  %65 = call i32 @pthread_mutex_unlock(%struct.pthread_mutex_t* nonnull %7) #13
  %66 = load atomic i64, i64* %3 monotonic, align 8
  br label %67

; <label>:67:                                     ; preds = %64, %54
  %68 = phi i64 [ %66, %64 ], [ %55, %54 ]
  %69 = phi i32 [ 40, %64 ], [ %41, %54 ]
  %70 = call i32 @pthread_cond_destroy(%struct.pthread_mutex_t* nonnull %8) #13
  %71 = call i32 @pthread_mutex_destroy(%struct.pthread_mutex_t* nonnull %7) #13
  call void @llvm.lifetime.end.p0i8(i64 160, i8* nonnull %5) #14
  br label %37

; <label>:72:                                     ; preds = %18
  ret void
}

declare i32 @pthread_mutex_init(%struct.pthread_mutex_t*, i8*) local_unnamed_addr #1

declare i32 @pthread_cond_init(%struct.pthread_mutex_t*, i8*) local_unnamed_addr #1

declare i32 @pthread_cond_wait(%struct.pthread_mutex_t*, %struct.pthread_mutex_t*) local_unnamed_addr #1

declare i32 @pthread_cond_destroy(%struct.pthread_mutex_t*) local_unnamed_addr #1

declare i32 @pthread_mutex_destroy(%struct.pthread_mutex_t*) local_unnamed_addr #1

; Function Attrs: nounwind
define weak i32 @halide_do_task(i8*, i32 (i8*, i32, i8*)*, i32, i8*) local_unnamed_addr #0 {
  %5 = load i32 (i8*, i32 (i8*, i32, i8*)*, i32, i8*)*, i32 (i8*, i32 (i8*, i32, i8*)*, i32, i8*)** @_ZN6Halide7Runtime8Internal14custom_do_taskE, align 8, !tbaa !3
  %6 = tail call i32 %5(i8* %0, i32 (i8*, i32, i8*)* %1, i32 %2, i8* %3) #13
  ret i32 %6
}

; Function Attrs: nounwind
define weak void @halide_cond_wait(%struct.halide_mutex*, %struct.halide_mutex*) local_unnamed_addr #0 {
  %3 = alloca %"struct.Halide::Runtime::Internal::Synchronization::mutex_parking_control", align 8
  %4 = alloca %"struct.Halide::Runtime::Internal::Synchronization::wait_parking_control", align 8
  %5 = bitcast %"struct.Halide::Runtime::Internal::Synchronization::wait_parking_control"* %4 to i8*
  call void @llvm.lifetime.start.p0i8(i64 48, i8* nonnull %5) #14
  %6 = getelementptr inbounds %struct.halide_mutex, %struct.halide_mutex* %0, i64 0, i32 0, i64 0
  %7 = getelementptr inbounds %"struct.Halide::Runtime::Internal::Synchronization::wait_parking_control", %"struct.Halide::Runtime::Internal::Synchronization::wait_parking_control"* %4, i64 0, i32 0, i32 0
  %8 = getelementptr inbounds %"struct.Halide::Runtime::Internal::Synchronization::wait_parking_control", %"struct.Halide::Runtime::Internal::Synchronization::wait_parking_control"* %4, i64 0, i32 0, i32 1
  %9 = getelementptr inbounds %"struct.Halide::Runtime::Internal::Synchronization::wait_parking_control", %"struct.Halide::Runtime::Internal::Synchronization::wait_parking_control"* %4, i64 0, i32 0, i32 2
  %10 = getelementptr inbounds %"struct.Halide::Runtime::Internal::Synchronization::wait_parking_control", %"struct.Halide::Runtime::Internal::Synchronization::wait_parking_control"* %4, i64 0, i32 0, i32 3
  store void (i8*, %"struct.Halide::Runtime::Internal::Synchronization::validate_action"*, i1, i1)* @_ZN6Halide7Runtime8Internal15Synchronization32parking_control_requeue_callbackEPvRKNS2_15validate_actionEbb, void (i8*, %"struct.Halide::Runtime::Internal::Synchronization::validate_action"*, i1, i1)** %10, align 8, !tbaa !37
  %11 = getelementptr inbounds %"struct.Halide::Runtime::Internal::Synchronization::wait_parking_control", %"struct.Halide::Runtime::Internal::Synchronization::wait_parking_control"* %4, i64 0, i32 1
  store i64* %6, i64** %11, align 8, !tbaa !65
  %12 = getelementptr inbounds %"struct.Halide::Runtime::Internal::Synchronization::wait_parking_control", %"struct.Halide::Runtime::Internal::Synchronization::wait_parking_control"* %4, i64 0, i32 2
  %13 = bitcast %"class.Halide::Runtime::Internal::Synchronization::word_lock"** %12 to %struct.halide_mutex**
  store %struct.halide_mutex* %1, %struct.halide_mutex** %13, align 8, !tbaa !67
  store i1 (i8*, %"struct.Halide::Runtime::Internal::Synchronization::validate_action"*)* @_ZN6Halide7Runtime8Internal15Synchronization29wait_parking_control_validateEPvRNS2_15validate_actionE, i1 (i8*, %"struct.Halide::Runtime::Internal::Synchronization::validate_action"*)** %7, align 8, !tbaa !40
  store void (i8*)* @_ZN6Halide7Runtime8Internal15Synchronization33wait_parking_control_before_sleepEPv, void (i8*)** %8, align 8, !tbaa !35
  store i64 (i8*, i32, i1)* @_ZN6Halide7Runtime8Internal15Synchronization27wait_parking_control_unparkEPvib, i64 (i8*, i32, i1)** %9, align 8, !tbaa !41
  %14 = ptrtoint %struct.halide_mutex* %0 to i64
  %15 = getelementptr inbounds %"struct.Halide::Runtime::Internal::Synchronization::wait_parking_control", %"struct.Halide::Runtime::Internal::Synchronization::wait_parking_control"* %4, i64 0, i32 0
  %16 = call i64 @_ZN6Halide7Runtime8Internal15Synchronization4parkEyRNS2_15parking_controlE(i64 %14, %"struct.Halide::Runtime::Internal::Synchronization::parking_control"* nonnull dereferenceable(32) %15) #13
  %17 = ptrtoint %struct.halide_mutex* %1 to i64
  %18 = icmp eq i64 %16, %17
  %19 = getelementptr inbounds %struct.halide_mutex, %struct.halide_mutex* %1, i64 0, i32 0, i64 0
  br i1 %18, label %73, label %20

; <label>:20:                                     ; preds = %2
  %21 = cmpxchg weak i64* %19, i64 0, i64 1 acquire monotonic
  %22 = extractvalue { i64, i1 } %21, 1
  br i1 %22, label %78, label %23

; <label>:23:                                     ; preds = %20
  %24 = load atomic i64, i64* %19 monotonic, align 8
  %25 = bitcast %"struct.Halide::Runtime::Internal::Synchronization::mutex_parking_control"* %3 to i8*
  %26 = getelementptr inbounds %"struct.Halide::Runtime::Internal::Synchronization::mutex_parking_control", %"struct.Halide::Runtime::Internal::Synchronization::mutex_parking_control"* %3, i64 0, i32 0, i32 0
  %27 = getelementptr inbounds %"struct.Halide::Runtime::Internal::Synchronization::mutex_parking_control", %"struct.Halide::Runtime::Internal::Synchronization::mutex_parking_control"* %3, i64 0, i32 0, i32 1
  %28 = getelementptr inbounds %"struct.Halide::Runtime::Internal::Synchronization::mutex_parking_control", %"struct.Halide::Runtime::Internal::Synchronization::mutex_parking_control"* %3, i64 0, i32 0, i32 2
  %29 = getelementptr inbounds %"struct.Halide::Runtime::Internal::Synchronization::mutex_parking_control", %"struct.Halide::Runtime::Internal::Synchronization::mutex_parking_control"* %3, i64 0, i32 0, i32 3
  %30 = getelementptr inbounds %"struct.Halide::Runtime::Internal::Synchronization::mutex_parking_control", %"struct.Halide::Runtime::Internal::Synchronization::mutex_parking_control"* %3, i64 0, i32 1
  %31 = getelementptr inbounds %"struct.Halide::Runtime::Internal::Synchronization::mutex_parking_control", %"struct.Halide::Runtime::Internal::Synchronization::mutex_parking_control"* %3, i64 0, i32 0
  br label %32

; <label>:32:                                     ; preds = %69, %23
  %33 = phi i64 [ %24, %23 ], [ %70, %69 ]
  %34 = phi i32 [ 40, %23 ], [ %71, %69 ]
  %35 = and i64 %33, 1
  %36 = icmp eq i64 %35, 0
  br i1 %36, label %37, label %46

; <label>:37:                                     ; preds = %42, %32
  %38 = phi i64 [ %43, %42 ], [ %33, %32 ]
  %39 = or i64 %38, 1
  %40 = cmpxchg weak i64* %19, i64 %38, i64 %39 acquire monotonic
  %41 = extractvalue { i64, i1 } %40, 1
  br i1 %41, label %78, label %42

; <label>:42:                                     ; preds = %37
  %43 = extractvalue { i64, i1 } %40, 0
  %44 = and i64 %43, 1
  %45 = icmp eq i64 %44, 0
  br i1 %45, label %37, label %46

; <label>:46:                                     ; preds = %42, %32
  %47 = phi i64 [ %33, %32 ], [ %43, %42 ]
  %48 = and i64 %47, 2
  %49 = icmp eq i64 %48, 0
  br i1 %49, label %50, label %64

; <label>:50:                                     ; preds = %46
  %51 = icmp sgt i32 %34, 0
  br i1 %51, label %52, label %57

; <label>:52:                                     ; preds = %50
  %53 = icmp eq i32 %34, 1
  br i1 %53, label %57, label %54

; <label>:54:                                     ; preds = %52
  %55 = add nsw i32 %34, -1
  call void @_ZN6Halide7Runtime8Internal19halide_thread_yieldEv() #13
  %56 = load atomic i64, i64* %19 monotonic, align 8
  br label %69

; <label>:57:                                     ; preds = %52, %50
  %58 = phi i32 [ 0, %52 ], [ %34, %50 ]
  %59 = or i64 %47, 2
  %60 = cmpxchg weak i64* %19, i64 %47, i64 %59 monotonic monotonic
  %61 = extractvalue { i64, i1 } %60, 1
  br i1 %61, label %64, label %62

; <label>:62:                                     ; preds = %57
  %63 = extractvalue { i64, i1 } %60, 0
  br label %69

; <label>:64:                                     ; preds = %57, %46
  call void @llvm.lifetime.start.p0i8(i64 40, i8* nonnull %25) #14
  store void (i8*)* @_ZN6Halide7Runtime8Internal15Synchronization28parking_control_before_sleepEPv, void (i8*)** %27, align 8, !tbaa !35
  store void (i8*, %"struct.Halide::Runtime::Internal::Synchronization::validate_action"*, i1, i1)* @_ZN6Halide7Runtime8Internal15Synchronization32parking_control_requeue_callbackEPvRKNS2_15validate_actionEbb, void (i8*, %"struct.Halide::Runtime::Internal::Synchronization::validate_action"*, i1, i1)** %29, align 8, !tbaa !37
  store i64* %19, i64** %30, align 8, !tbaa !38
  store i1 (i8*, %"struct.Halide::Runtime::Internal::Synchronization::validate_action"*)* @_ZN6Halide7Runtime8Internal15Synchronization30mutex_parking_control_validateEPvRNS2_15validate_actionE, i1 (i8*, %"struct.Halide::Runtime::Internal::Synchronization::validate_action"*)** %26, align 8, !tbaa !40
  store i64 (i8*, i32, i1)* @_ZN6Halide7Runtime8Internal15Synchronization28mutex_parking_control_unparkEPvib, i64 (i8*, i32, i1)** %28, align 8, !tbaa !41
  %65 = call i64 @_ZN6Halide7Runtime8Internal15Synchronization4parkEyRNS2_15parking_controlE(i64 %17, %"struct.Halide::Runtime::Internal::Synchronization::parking_control"* nonnull dereferenceable(32) %31) #13
  %66 = icmp eq i64 %65, %17
  br i1 %66, label %72, label %67

; <label>:67:                                     ; preds = %64
  %68 = load atomic i64, i64* %19 monotonic, align 8
  call void @llvm.lifetime.end.p0i8(i64 40, i8* nonnull %25) #14
  br label %69

; <label>:69:                                     ; preds = %67, %62, %54
  %70 = phi i64 [ %63, %62 ], [ %68, %67 ], [ %56, %54 ]
  %71 = phi i32 [ %58, %62 ], [ 40, %67 ], [ %55, %54 ]
  br label %32

; <label>:72:                                     ; preds = %64
  call void @llvm.lifetime.end.p0i8(i64 40, i8* nonnull %25) #14
  br label %78

; <label>:73:                                     ; preds = %2
  %74 = load atomic i64, i64* %19 monotonic, align 8
  %75 = and i64 %74, 1
  %76 = icmp eq i64 %75, 0
  br i1 %76, label %77, label %78

; <label>:77:                                     ; preds = %73
  call void @halide_print(i8* null, i8* getelementptr inbounds ([102 x i8], [102 x i8]* @.str.4, i64 0, i64 0)) #13
  call void @abort() #13
  br label %78

; <label>:78:                                     ; preds = %77, %73, %72, %37, %20
  call void @llvm.lifetime.end.p0i8(i64 48, i8* nonnull %5) #14
  ret void
}

; Function Attrs: nounwind
define linkonce zeroext i1 @_ZN6Halide7Runtime8Internal15Synchronization29wait_parking_control_validateEPvRNS2_15validate_actionE(i8*, %"struct.Halide::Runtime::Internal::Synchronization::validate_action"* dereferenceable(16)) #0 {
  %3 = getelementptr inbounds i8, i8* %0, i64 32
  %4 = bitcast i8* %3 to i64**
  %5 = load i64*, i64** %4, align 8, !tbaa !65
  %6 = load atomic i64, i64* %5 monotonic, align 8
  %7 = icmp eq i64 %6, 0
  %8 = getelementptr inbounds i8, i8* %0, i64 40
  %9 = bitcast i8* %8 to i64*
  %10 = load i64, i64* %9, align 8, !tbaa !67
  br i1 %7, label %11, label %12

; <label>:11:                                     ; preds = %2
  store atomic i64 %10, i64* %5 monotonic, align 8
  br label %16

; <label>:12:                                     ; preds = %2
  %13 = icmp eq i64 %6, %10
  br i1 %13, label %16, label %14

; <label>:14:                                     ; preds = %12
  %15 = getelementptr inbounds %"struct.Halide::Runtime::Internal::Synchronization::validate_action", %"struct.Halide::Runtime::Internal::Synchronization::validate_action"* %1, i64 0, i32 2
  store i64 %10, i64* %15, align 8, !tbaa !68
  br label %16

; <label>:16:                                     ; preds = %14, %12, %11
  %17 = phi i1 [ false, %14 ], [ true, %12 ], [ true, %11 ]
  ret i1 %17
}

; Function Attrs: nounwind
define linkonce void @_ZN6Halide7Runtime8Internal15Synchronization33wait_parking_control_before_sleepEPv(i8*) #0 {
  %2 = alloca %"struct.Halide::Runtime::Internal::Synchronization::mutex_parking_control", align 8
  %3 = getelementptr inbounds i8, i8* %0, i64 40
  %4 = bitcast i8* %3 to %"class.Halide::Runtime::Internal::Synchronization::word_lock"**
  %5 = load %"class.Halide::Runtime::Internal::Synchronization::word_lock"*, %"class.Halide::Runtime::Internal::Synchronization::word_lock"** %4, align 8, !tbaa !67
  %6 = getelementptr inbounds %"class.Halide::Runtime::Internal::Synchronization::word_lock", %"class.Halide::Runtime::Internal::Synchronization::word_lock"* %5, i64 0, i32 0
  %7 = cmpxchg weak i64* %6, i64 1, i64 0 release monotonic
  %8 = extractvalue { i64, i1 } %7, 1
  br i1 %8, label %22, label %9

; <label>:9:                                      ; preds = %1
  %10 = cmpxchg i64* %6, i64 1, i64 0 release monotonic
  %11 = extractvalue { i64, i1 } %10, 1
  br i1 %11, label %22, label %12

; <label>:12:                                     ; preds = %9
  %13 = bitcast %"struct.Halide::Runtime::Internal::Synchronization::mutex_parking_control"* %2 to i8*
  call void @llvm.lifetime.start.p0i8(i64 40, i8* nonnull %13) #14
  %14 = getelementptr inbounds %"struct.Halide::Runtime::Internal::Synchronization::mutex_parking_control", %"struct.Halide::Runtime::Internal::Synchronization::mutex_parking_control"* %2, i64 0, i32 0, i32 0
  %15 = getelementptr inbounds %"struct.Halide::Runtime::Internal::Synchronization::mutex_parking_control", %"struct.Halide::Runtime::Internal::Synchronization::mutex_parking_control"* %2, i64 0, i32 0, i32 1
  store void (i8*)* @_ZN6Halide7Runtime8Internal15Synchronization28parking_control_before_sleepEPv, void (i8*)** %15, align 8, !tbaa !35
  %16 = getelementptr inbounds %"struct.Halide::Runtime::Internal::Synchronization::mutex_parking_control", %"struct.Halide::Runtime::Internal::Synchronization::mutex_parking_control"* %2, i64 0, i32 0, i32 2
  %17 = getelementptr inbounds %"struct.Halide::Runtime::Internal::Synchronization::mutex_parking_control", %"struct.Halide::Runtime::Internal::Synchronization::mutex_parking_control"* %2, i64 0, i32 0, i32 3
  store void (i8*, %"struct.Halide::Runtime::Internal::Synchronization::validate_action"*, i1, i1)* @_ZN6Halide7Runtime8Internal15Synchronization32parking_control_requeue_callbackEPvRKNS2_15validate_actionEbb, void (i8*, %"struct.Halide::Runtime::Internal::Synchronization::validate_action"*, i1, i1)** %17, align 8, !tbaa !37
  %18 = getelementptr inbounds %"struct.Halide::Runtime::Internal::Synchronization::mutex_parking_control", %"struct.Halide::Runtime::Internal::Synchronization::mutex_parking_control"* %2, i64 0, i32 1
  store i64* %6, i64** %18, align 8, !tbaa !38
  store i1 (i8*, %"struct.Halide::Runtime::Internal::Synchronization::validate_action"*)* @_ZN6Halide7Runtime8Internal15Synchronization30mutex_parking_control_validateEPvRNS2_15validate_actionE, i1 (i8*, %"struct.Halide::Runtime::Internal::Synchronization::validate_action"*)** %14, align 8, !tbaa !40
  store i64 (i8*, i32, i1)* @_ZN6Halide7Runtime8Internal15Synchronization28mutex_parking_control_unparkEPvib, i64 (i8*, i32, i1)** %16, align 8, !tbaa !41
  %19 = ptrtoint %"class.Halide::Runtime::Internal::Synchronization::word_lock"* %5 to i64
  %20 = getelementptr inbounds %"struct.Halide::Runtime::Internal::Synchronization::mutex_parking_control", %"struct.Halide::Runtime::Internal::Synchronization::mutex_parking_control"* %2, i64 0, i32 0
  %21 = call i64 @_ZN6Halide7Runtime8Internal15Synchronization10unpark_oneEyRNS2_15parking_controlE(i64 %19, %"struct.Halide::Runtime::Internal::Synchronization::parking_control"* nonnull dereferenceable(32) %20) #13
  call void @llvm.lifetime.end.p0i8(i64 40, i8* nonnull %13) #14
  br label %22

; <label>:22:                                     ; preds = %12, %9, %1
  ret void
}

; Function Attrs: nounwind
define linkonce i64 @_ZN6Halide7Runtime8Internal15Synchronization27wait_parking_control_unparkEPvib(i8*, i32, i1 zeroext) #0 {
  br i1 %2, label %8, label %4

; <label>:4:                                      ; preds = %3
  %5 = getelementptr inbounds i8, i8* %0, i64 32
  %6 = bitcast i8* %5 to i64**
  %7 = load i64*, i64** %6, align 8, !tbaa !65
  store atomic i64 0, i64* %7 monotonic, align 8
  br label %8

; <label>:8:                                      ; preds = %4, %3
  ret i64 0
}

; Function Attrs: nounwind
define linkonce i64 @_ZN6Halide7Runtime8Internal15Synchronization4parkEyRNS2_15parking_controlE(i64, %"struct.Halide::Runtime::Internal::Synchronization::parking_control"* dereferenceable(32)) local_unnamed_addr #0 {
  %3 = alloca %"struct.Halide::Runtime::Internal::Synchronization::queue_data", align 8
  %4 = alloca %"struct.Halide::Runtime::Internal::Synchronization::validate_action", align 8
  %5 = bitcast %"struct.Halide::Runtime::Internal::Synchronization::queue_data"* %3 to i8*
  call void @llvm.lifetime.start.p0i8(i64 160, i8* nonnull %5) #14
  %6 = getelementptr inbounds %"struct.Halide::Runtime::Internal::Synchronization::queue_data", %"struct.Halide::Runtime::Internal::Synchronization::queue_data"* %3, i64 0, i32 0, i32 2
  store i8 0, i8* %6, align 8, !tbaa !60
  %7 = getelementptr inbounds %"struct.Halide::Runtime::Internal::Synchronization::queue_data", %"struct.Halide::Runtime::Internal::Synchronization::queue_data"* %3, i64 0, i32 0, i32 0
  %8 = call i32 @pthread_mutex_init(%struct.pthread_mutex_t* nonnull %7, i8* null) #13
  %9 = getelementptr inbounds %"struct.Halide::Runtime::Internal::Synchronization::queue_data", %"struct.Halide::Runtime::Internal::Synchronization::queue_data"* %3, i64 0, i32 0, i32 1
  %10 = call i32 @pthread_cond_init(%struct.pthread_mutex_t* nonnull %9, i8* null) #13
  store i8 0, i8* %6, align 8, !tbaa !60
  %11 = getelementptr inbounds %"struct.Halide::Runtime::Internal::Synchronization::queue_data", %"struct.Halide::Runtime::Internal::Synchronization::queue_data"* %3, i64 0, i32 1
  store i64 0, i64* %11, align 8, !tbaa !70
  %12 = getelementptr inbounds %"struct.Halide::Runtime::Internal::Synchronization::queue_data", %"struct.Halide::Runtime::Internal::Synchronization::queue_data"* %3, i64 0, i32 2
  store %"struct.Halide::Runtime::Internal::Synchronization::queue_data"* null, %"struct.Halide::Runtime::Internal::Synchronization::queue_data"** %12, align 8, !tbaa !51
  %13 = getelementptr inbounds %"struct.Halide::Runtime::Internal::Synchronization::queue_data", %"struct.Halide::Runtime::Internal::Synchronization::queue_data"* %3, i64 0, i32 3
  store i64 0, i64* %13, align 8, !tbaa !59
  %14 = call dereferenceable(24) %"struct.Halide::Runtime::Internal::Synchronization::hash_bucket"* @_ZN6Halide7Runtime8Internal15Synchronization11lock_bucketEy(i64 %0) #15
  %15 = getelementptr inbounds %"struct.Halide::Runtime::Internal::Synchronization::validate_action", %"struct.Halide::Runtime::Internal::Synchronization::validate_action"* %4, i64 0, i32 0
  call void @llvm.lifetime.start.p0i8(i64 16, i8* nonnull %15) #14
  store i8 0, i8* %15, align 8, !tbaa !71
  %16 = getelementptr inbounds %"struct.Halide::Runtime::Internal::Synchronization::validate_action", %"struct.Halide::Runtime::Internal::Synchronization::validate_action"* %4, i64 0, i32 2
  store i64 0, i64* %16, align 8, !tbaa !68
  %17 = getelementptr inbounds %"struct.Halide::Runtime::Internal::Synchronization::parking_control", %"struct.Halide::Runtime::Internal::Synchronization::parking_control"* %1, i64 0, i32 0
  %18 = load i1 (i8*, %"struct.Halide::Runtime::Internal::Synchronization::validate_action"*)*, i1 (i8*, %"struct.Halide::Runtime::Internal::Synchronization::validate_action"*)** %17, align 8, !tbaa !40
  %19 = bitcast %"struct.Halide::Runtime::Internal::Synchronization::parking_control"* %1 to i8*
  %20 = call zeroext i1 %18(i8* nonnull %19, %"struct.Halide::Runtime::Internal::Synchronization::validate_action"* nonnull dereferenceable(16) %4) #13
  br i1 %20, label %30, label %21

; <label>:21:                                     ; preds = %2
  %22 = getelementptr inbounds %"struct.Halide::Runtime::Internal::Synchronization::hash_bucket", %"struct.Halide::Runtime::Internal::Synchronization::hash_bucket"* %14, i64 0, i32 0, i32 0
  %23 = atomicrmw and i64* %22, i64 -2 release
  %24 = and i64 %23, 2
  %25 = icmp eq i64 %24, 0
  %26 = icmp ugt i64 %23, 3
  %27 = and i1 %26, %25
  br i1 %27, label %28, label %62

; <label>:28:                                     ; preds = %21
  %29 = getelementptr inbounds %"struct.Halide::Runtime::Internal::Synchronization::hash_bucket", %"struct.Halide::Runtime::Internal::Synchronization::hash_bucket"* %14, i64 0, i32 0
  call void @_ZN6Halide7Runtime8Internal15Synchronization9word_lock11unlock_fullEv(%"class.Halide::Runtime::Internal::Synchronization::word_lock"* nonnull %29) #13
  br label %62

; <label>:30:                                     ; preds = %2
  store %"struct.Halide::Runtime::Internal::Synchronization::queue_data"* null, %"struct.Halide::Runtime::Internal::Synchronization::queue_data"** %12, align 8, !tbaa !51
  store i64 %0, i64* %11, align 8, !tbaa !70
  store i8 1, i8* %6, align 8, !tbaa !60
  %31 = getelementptr inbounds %"struct.Halide::Runtime::Internal::Synchronization::hash_bucket", %"struct.Halide::Runtime::Internal::Synchronization::hash_bucket"* %14, i64 0, i32 1
  %32 = load %"struct.Halide::Runtime::Internal::Synchronization::queue_data"*, %"struct.Halide::Runtime::Internal::Synchronization::queue_data"** %31, align 8, !tbaa !72
  %33 = icmp eq %"struct.Halide::Runtime::Internal::Synchronization::queue_data"* %32, null
  br i1 %33, label %38, label %34

; <label>:34:                                     ; preds = %30
  %35 = getelementptr inbounds %"struct.Halide::Runtime::Internal::Synchronization::hash_bucket", %"struct.Halide::Runtime::Internal::Synchronization::hash_bucket"* %14, i64 0, i32 2
  %36 = load %"struct.Halide::Runtime::Internal::Synchronization::queue_data"*, %"struct.Halide::Runtime::Internal::Synchronization::queue_data"** %35, align 8, !tbaa !56
  %37 = getelementptr inbounds %"struct.Halide::Runtime::Internal::Synchronization::queue_data", %"struct.Halide::Runtime::Internal::Synchronization::queue_data"* %36, i64 0, i32 2
  store %"struct.Halide::Runtime::Internal::Synchronization::queue_data"* %3, %"struct.Halide::Runtime::Internal::Synchronization::queue_data"** %37, align 8, !tbaa !51
  br label %40

; <label>:38:                                     ; preds = %30
  store %"struct.Halide::Runtime::Internal::Synchronization::queue_data"* %3, %"struct.Halide::Runtime::Internal::Synchronization::queue_data"** %31, align 8, !tbaa !72
  %39 = getelementptr inbounds %"struct.Halide::Runtime::Internal::Synchronization::hash_bucket", %"struct.Halide::Runtime::Internal::Synchronization::hash_bucket"* %14, i64 0, i32 2
  br label %40

; <label>:40:                                     ; preds = %38, %34
  %41 = phi %"struct.Halide::Runtime::Internal::Synchronization::queue_data"** [ %39, %38 ], [ %35, %34 ]
  store %"struct.Halide::Runtime::Internal::Synchronization::queue_data"* %3, %"struct.Halide::Runtime::Internal::Synchronization::queue_data"** %41, align 8, !tbaa !56
  %42 = getelementptr inbounds %"struct.Halide::Runtime::Internal::Synchronization::hash_bucket", %"struct.Halide::Runtime::Internal::Synchronization::hash_bucket"* %14, i64 0, i32 0, i32 0
  %43 = atomicrmw and i64* %42, i64 -2 release
  %44 = and i64 %43, 2
  %45 = icmp eq i64 %44, 0
  %46 = icmp ugt i64 %43, 3
  %47 = and i1 %46, %45
  br i1 %47, label %48, label %50

; <label>:48:                                     ; preds = %40
  %49 = getelementptr inbounds %"struct.Halide::Runtime::Internal::Synchronization::hash_bucket", %"struct.Halide::Runtime::Internal::Synchronization::hash_bucket"* %14, i64 0, i32 0
  call void @_ZN6Halide7Runtime8Internal15Synchronization9word_lock11unlock_fullEv(%"class.Halide::Runtime::Internal::Synchronization::word_lock"* nonnull %49) #13
  br label %50

; <label>:50:                                     ; preds = %48, %40
  %51 = getelementptr inbounds %"struct.Halide::Runtime::Internal::Synchronization::parking_control", %"struct.Halide::Runtime::Internal::Synchronization::parking_control"* %1, i64 0, i32 1
  %52 = load void (i8*)*, void (i8*)** %51, align 8, !tbaa !35
  call void %52(i8* nonnull %19) #13
  %53 = call i32 @pthread_mutex_lock(%struct.pthread_mutex_t* nonnull %7) #13
  %54 = load i8, i8* %6, align 8, !tbaa !60, !range !10
  %55 = icmp eq i8 %54, 0
  br i1 %55, label %60, label %56

; <label>:56:                                     ; preds = %56, %50
  %57 = call i32 @pthread_cond_wait(%struct.pthread_mutex_t* nonnull %9, %struct.pthread_mutex_t* nonnull %7) #13
  %58 = load i8, i8* %6, align 8, !tbaa !60, !range !10
  %59 = icmp eq i8 %58, 0
  br i1 %59, label %60, label %56

; <label>:60:                                     ; preds = %56, %50
  %61 = call i32 @pthread_mutex_unlock(%struct.pthread_mutex_t* nonnull %7) #13
  br label %62

; <label>:62:                                     ; preds = %60, %28, %21
  %63 = phi i64* [ %13, %60 ], [ %16, %21 ], [ %16, %28 ]
  %64 = load i64, i64* %63, align 8, !tbaa !11
  call void @llvm.lifetime.end.p0i8(i64 16, i8* nonnull %15) #14
  %65 = call i32 @pthread_cond_destroy(%struct.pthread_mutex_t* nonnull %9) #13
  %66 = call i32 @pthread_mutex_destroy(%struct.pthread_mutex_t* nonnull %7) #13
  call void @llvm.lifetime.end.p0i8(i64 160, i8* nonnull %5) #14
  ret i64 %64
}

; Function Attrs: norecurse nounwind
define linkonce i64 @_ZN6Halide7Runtime8Internal15Synchronization22parking_control_unparkEPvib(i8*, i32, i1 zeroext) #2 {
  ret i64 0
}

; Function Attrs: nounwind
define linkonce zeroext i1 @_ZN6Halide7Runtime8Internal15Synchronization34broadcast_parking_control_validateEPvRNS2_15validate_actionE(i8*, %"struct.Halide::Runtime::Internal::Synchronization::validate_action"* dereferenceable(16)) #0 {
  %3 = getelementptr inbounds i8, i8* %0, i64 32
  %4 = bitcast i8* %3 to i64**
  %5 = load i64*, i64** %4, align 8, !tbaa !47
  %6 = load atomic i64, i64* %5 monotonic, align 8
  %7 = getelementptr inbounds i8, i8* %0, i64 40
  %8 = bitcast i8* %7 to i64*
  %9 = load i64, i64* %8, align 8, !tbaa !49
  %10 = icmp eq i64 %6, %9
  br i1 %10, label %11, label %30

; <label>:11:                                     ; preds = %2
  %12 = bitcast i8* %7 to %"class.Halide::Runtime::Internal::Synchronization::word_lock"**
  store atomic i64 0, i64* %5 monotonic, align 8
  %13 = load %"class.Halide::Runtime::Internal::Synchronization::word_lock"*, %"class.Halide::Runtime::Internal::Synchronization::word_lock"** %12, align 8, !tbaa !49
  %14 = getelementptr inbounds %"class.Halide::Runtime::Internal::Synchronization::word_lock", %"class.Halide::Runtime::Internal::Synchronization::word_lock"* %13, i64 0, i32 0
  %15 = load atomic i64, i64* %14 monotonic, align 8
  %16 = and i64 %15, 1
  %17 = icmp eq i64 %16, 0
  br i1 %17, label %27, label %18

; <label>:18:                                     ; preds = %23, %11
  %19 = phi i64 [ %24, %23 ], [ %15, %11 ]
  %20 = or i64 %19, 2
  %21 = cmpxchg weak i64* %14, i64 %19, i64 %20 monotonic monotonic
  %22 = extractvalue { i64, i1 } %21, 1
  br i1 %22, label %27, label %23

; <label>:23:                                     ; preds = %18
  %24 = extractvalue { i64, i1 } %21, 0
  %25 = and i64 %24, 1
  %26 = icmp eq i64 %25, 0
  br i1 %26, label %27, label %18

; <label>:27:                                     ; preds = %23, %18, %11
  %28 = phi i8 [ 1, %11 ], [ 1, %23 ], [ 0, %18 ]
  %29 = getelementptr inbounds %"struct.Halide::Runtime::Internal::Synchronization::validate_action", %"struct.Halide::Runtime::Internal::Synchronization::validate_action"* %1, i64 0, i32 0
  store i8 %28, i8* %29, align 8, !tbaa !71
  br label %30

; <label>:30:                                     ; preds = %27, %2
  %31 = phi i1 [ true, %27 ], [ false, %2 ]
  ret i1 %31
}

; Function Attrs: norecurse nounwind
define linkonce void @_ZN6Halide7Runtime8Internal15Synchronization42broadcast_parking_control_requeue_callbackEPvRKNS2_15validate_actionEbb(i8*, %"struct.Halide::Runtime::Internal::Synchronization::validate_action"* dereferenceable(16), i1 zeroext, i1 zeroext) #2 {
  %5 = getelementptr inbounds %"struct.Halide::Runtime::Internal::Synchronization::validate_action", %"struct.Halide::Runtime::Internal::Synchronization::validate_action"* %1, i64 0, i32 0
  %6 = load i8, i8* %5, align 8, !tbaa !71, !range !10
  %7 = icmp eq i8 %6, 0
  %8 = xor i1 %3, true
  %9 = or i1 %7, %8
  br i1 %9, label %16, label %10

; <label>:10:                                     ; preds = %4
  %11 = getelementptr inbounds i8, i8* %0, i64 40
  %12 = bitcast i8* %11 to %"class.Halide::Runtime::Internal::Synchronization::word_lock"**
  %13 = load %"class.Halide::Runtime::Internal::Synchronization::word_lock"*, %"class.Halide::Runtime::Internal::Synchronization::word_lock"** %12, align 8, !tbaa !49
  %14 = getelementptr inbounds %"class.Halide::Runtime::Internal::Synchronization::word_lock", %"class.Halide::Runtime::Internal::Synchronization::word_lock"* %13, i64 0, i32 0
  %15 = atomicrmw or i64* %14, i64 2 monotonic
  br label %16

; <label>:16:                                     ; preds = %10, %4
  ret void
}

; Function Attrs: nounwind
define linkonce i32 @_ZN6Halide7Runtime8Internal15Synchronization14unpark_requeueEyyRNS2_15parking_controlEy(i64, i64, %"struct.Halide::Runtime::Internal::Synchronization::parking_control"* dereferenceable(32), i64) local_unnamed_addr #0 {
  %5 = alloca %"struct.Halide::Runtime::Internal::Synchronization::bucket_pair", align 8
  %6 = alloca %"struct.Halide::Runtime::Internal::Synchronization::validate_action", align 8
  %7 = bitcast %"struct.Halide::Runtime::Internal::Synchronization::bucket_pair"* %5 to i8*
  call void @llvm.lifetime.start.p0i8(i64 16, i8* nonnull %7) #14
  call void @_ZN6Halide7Runtime8Internal15Synchronization16lock_bucket_pairEyy(%"struct.Halide::Runtime::Internal::Synchronization::bucket_pair"* nonnull sret %5, i64 %0, i64 %1) #15
  %8 = getelementptr inbounds %"struct.Halide::Runtime::Internal::Synchronization::validate_action", %"struct.Halide::Runtime::Internal::Synchronization::validate_action"* %6, i64 0, i32 0
  call void @llvm.lifetime.start.p0i8(i64 16, i8* nonnull %8) #14
  store i8 0, i8* %8, align 8, !tbaa !71
  %9 = getelementptr inbounds %"struct.Halide::Runtime::Internal::Synchronization::validate_action", %"struct.Halide::Runtime::Internal::Synchronization::validate_action"* %6, i64 0, i32 2
  store i64 0, i64* %9, align 8, !tbaa !68
  %10 = getelementptr inbounds %"struct.Halide::Runtime::Internal::Synchronization::parking_control", %"struct.Halide::Runtime::Internal::Synchronization::parking_control"* %2, i64 0, i32 0
  %11 = load i1 (i8*, %"struct.Halide::Runtime::Internal::Synchronization::validate_action"*)*, i1 (i8*, %"struct.Halide::Runtime::Internal::Synchronization::validate_action"*)** %10, align 8, !tbaa !40
  %12 = bitcast %"struct.Halide::Runtime::Internal::Synchronization::parking_control"* %2 to i8*
  %13 = call zeroext i1 %11(i8* nonnull %12, %"struct.Halide::Runtime::Internal::Synchronization::validate_action"* nonnull dereferenceable(16) %6) #13
  br i1 %13, label %15, label %14

; <label>:14:                                     ; preds = %4
  call void @_ZN6Halide7Runtime8Internal15Synchronization18unlock_bucket_pairERNS2_11bucket_pairE(%"struct.Halide::Runtime::Internal::Synchronization::bucket_pair"* nonnull dereferenceable(16) %5) #15
  br label %124

; <label>:15:                                     ; preds = %4
  %16 = getelementptr inbounds %"struct.Halide::Runtime::Internal::Synchronization::bucket_pair", %"struct.Halide::Runtime::Internal::Synchronization::bucket_pair"* %5, i64 0, i32 0
  %17 = load %"struct.Halide::Runtime::Internal::Synchronization::hash_bucket"*, %"struct.Halide::Runtime::Internal::Synchronization::hash_bucket"** %16, align 8, !tbaa !73
  %18 = getelementptr inbounds %"struct.Halide::Runtime::Internal::Synchronization::hash_bucket", %"struct.Halide::Runtime::Internal::Synchronization::hash_bucket"* %17, i64 0, i32 1
  %19 = load %"struct.Halide::Runtime::Internal::Synchronization::queue_data"*, %"struct.Halide::Runtime::Internal::Synchronization::queue_data"** %18, align 8, !tbaa !3
  %20 = icmp eq %"struct.Halide::Runtime::Internal::Synchronization::queue_data"* %19, null
  br i1 %20, label %103, label %21

; <label>:21:                                     ; preds = %15
  %22 = load i8, i8* %8, align 8
  %23 = icmp eq i8 %22, 0
  %24 = getelementptr inbounds %"struct.Halide::Runtime::Internal::Synchronization::hash_bucket", %"struct.Halide::Runtime::Internal::Synchronization::hash_bucket"* %17, i64 0, i32 2
  br i1 %23, label %56, label %25

; <label>:25:                                     ; preds = %49, %21
  %26 = phi %"struct.Halide::Runtime::Internal::Synchronization::queue_data"* [ %54, %49 ], [ null, %21 ]
  %27 = phi %"struct.Halide::Runtime::Internal::Synchronization::queue_data"* [ %53, %49 ], [ null, %21 ]
  %28 = phi %"struct.Halide::Runtime::Internal::Synchronization::queue_data"* [ %52, %49 ], [ null, %21 ]
  %29 = phi %"struct.Halide::Runtime::Internal::Synchronization::queue_data"* [ %35, %49 ], [ %19, %21 ]
  %30 = phi %"struct.Halide::Runtime::Internal::Synchronization::queue_data"* [ %51, %49 ], [ null, %21 ]
  %31 = phi %"struct.Halide::Runtime::Internal::Synchronization::queue_data"** [ %50, %49 ], [ %18, %21 ]
  %32 = getelementptr inbounds %"struct.Halide::Runtime::Internal::Synchronization::queue_data", %"struct.Halide::Runtime::Internal::Synchronization::queue_data"* %29, i64 0, i32 1
  %33 = load atomic i64, i64* %32 monotonic, align 8
  %34 = getelementptr inbounds %"struct.Halide::Runtime::Internal::Synchronization::queue_data", %"struct.Halide::Runtime::Internal::Synchronization::queue_data"* %29, i64 0, i32 2
  %35 = load %"struct.Halide::Runtime::Internal::Synchronization::queue_data"*, %"struct.Halide::Runtime::Internal::Synchronization::queue_data"** %34, align 8, !tbaa !51
  %36 = icmp eq i64 %33, %0
  br i1 %36, label %37, label %49

; <label>:37:                                     ; preds = %25
  store %"struct.Halide::Runtime::Internal::Synchronization::queue_data"* %35, %"struct.Halide::Runtime::Internal::Synchronization::queue_data"** %31, align 8, !tbaa !3
  %38 = load %"struct.Halide::Runtime::Internal::Synchronization::queue_data"*, %"struct.Halide::Runtime::Internal::Synchronization::queue_data"** %24, align 8, !tbaa !56
  %39 = icmp eq %"struct.Halide::Runtime::Internal::Synchronization::queue_data"* %38, %29
  br i1 %39, label %40, label %41

; <label>:40:                                     ; preds = %37
  store %"struct.Halide::Runtime::Internal::Synchronization::queue_data"* %30, %"struct.Halide::Runtime::Internal::Synchronization::queue_data"** %24, align 8, !tbaa !56
  br label %41

; <label>:41:                                     ; preds = %40, %37
  %42 = icmp eq %"struct.Halide::Runtime::Internal::Synchronization::queue_data"* %26, null
  br i1 %42, label %49, label %43

; <label>:43:                                     ; preds = %41
  %44 = icmp eq %"struct.Halide::Runtime::Internal::Synchronization::queue_data"* %28, null
  br i1 %44, label %47, label %45

; <label>:45:                                     ; preds = %43
  %46 = getelementptr inbounds %"struct.Halide::Runtime::Internal::Synchronization::queue_data", %"struct.Halide::Runtime::Internal::Synchronization::queue_data"* %27, i64 0, i32 2
  store %"struct.Halide::Runtime::Internal::Synchronization::queue_data"* %29, %"struct.Halide::Runtime::Internal::Synchronization::queue_data"** %46, align 8, !tbaa !51
  br label %47

; <label>:47:                                     ; preds = %45, %43
  %48 = phi %"struct.Halide::Runtime::Internal::Synchronization::queue_data"* [ %28, %45 ], [ %29, %43 ]
  store atomic i64 %1, i64* %32 monotonic, align 8
  br label %49

; <label>:49:                                     ; preds = %47, %41, %25
  %50 = phi %"struct.Halide::Runtime::Internal::Synchronization::queue_data"** [ %31, %41 ], [ %31, %47 ], [ %34, %25 ]
  %51 = phi %"struct.Halide::Runtime::Internal::Synchronization::queue_data"* [ %30, %41 ], [ %30, %47 ], [ %29, %25 ]
  %52 = phi %"struct.Halide::Runtime::Internal::Synchronization::queue_data"* [ %28, %41 ], [ %48, %47 ], [ %28, %25 ]
  %53 = phi %"struct.Halide::Runtime::Internal::Synchronization::queue_data"* [ %27, %41 ], [ %29, %47 ], [ %27, %25 ]
  %54 = phi %"struct.Halide::Runtime::Internal::Synchronization::queue_data"* [ %29, %41 ], [ %26, %47 ], [ %26, %25 ]
  %55 = icmp eq %"struct.Halide::Runtime::Internal::Synchronization::queue_data"* %35, null
  br i1 %55, label %83, label %25

; <label>:56:                                     ; preds = %77, %21
  %57 = phi %"struct.Halide::Runtime::Internal::Synchronization::queue_data"* [ %81, %77 ], [ null, %21 ]
  %58 = phi %"struct.Halide::Runtime::Internal::Synchronization::queue_data"* [ %80, %77 ], [ null, %21 ]
  %59 = phi %"struct.Halide::Runtime::Internal::Synchronization::queue_data"* [ %65, %77 ], [ %19, %21 ]
  %60 = phi %"struct.Halide::Runtime::Internal::Synchronization::queue_data"* [ %79, %77 ], [ null, %21 ]
  %61 = phi %"struct.Halide::Runtime::Internal::Synchronization::queue_data"** [ %78, %77 ], [ %18, %21 ]
  %62 = getelementptr inbounds %"struct.Halide::Runtime::Internal::Synchronization::queue_data", %"struct.Halide::Runtime::Internal::Synchronization::queue_data"* %59, i64 0, i32 1
  %63 = load atomic i64, i64* %62 monotonic, align 8
  %64 = getelementptr inbounds %"struct.Halide::Runtime::Internal::Synchronization::queue_data", %"struct.Halide::Runtime::Internal::Synchronization::queue_data"* %59, i64 0, i32 2
  %65 = load %"struct.Halide::Runtime::Internal::Synchronization::queue_data"*, %"struct.Halide::Runtime::Internal::Synchronization::queue_data"** %64, align 8, !tbaa !51
  %66 = icmp eq i64 %63, %0
  br i1 %66, label %67, label %77

; <label>:67:                                     ; preds = %56
  store %"struct.Halide::Runtime::Internal::Synchronization::queue_data"* %65, %"struct.Halide::Runtime::Internal::Synchronization::queue_data"** %61, align 8, !tbaa !3
  %68 = load %"struct.Halide::Runtime::Internal::Synchronization::queue_data"*, %"struct.Halide::Runtime::Internal::Synchronization::queue_data"** %24, align 8, !tbaa !56
  %69 = icmp eq %"struct.Halide::Runtime::Internal::Synchronization::queue_data"* %68, %59
  br i1 %69, label %70, label %71

; <label>:70:                                     ; preds = %67
  store %"struct.Halide::Runtime::Internal::Synchronization::queue_data"* %60, %"struct.Halide::Runtime::Internal::Synchronization::queue_data"** %24, align 8, !tbaa !56
  br label %71

; <label>:71:                                     ; preds = %70, %67
  %72 = icmp eq %"struct.Halide::Runtime::Internal::Synchronization::queue_data"* %58, null
  br i1 %72, label %75, label %73

; <label>:73:                                     ; preds = %71
  %74 = getelementptr inbounds %"struct.Halide::Runtime::Internal::Synchronization::queue_data", %"struct.Halide::Runtime::Internal::Synchronization::queue_data"* %57, i64 0, i32 2
  store %"struct.Halide::Runtime::Internal::Synchronization::queue_data"* %59, %"struct.Halide::Runtime::Internal::Synchronization::queue_data"** %74, align 8, !tbaa !51
  br label %75

; <label>:75:                                     ; preds = %73, %71
  %76 = phi %"struct.Halide::Runtime::Internal::Synchronization::queue_data"* [ %58, %73 ], [ %59, %71 ]
  store atomic i64 %1, i64* %62 monotonic, align 8
  br label %77

; <label>:77:                                     ; preds = %75, %56
  %78 = phi %"struct.Halide::Runtime::Internal::Synchronization::queue_data"** [ %61, %75 ], [ %64, %56 ]
  %79 = phi %"struct.Halide::Runtime::Internal::Synchronization::queue_data"* [ %60, %75 ], [ %59, %56 ]
  %80 = phi %"struct.Halide::Runtime::Internal::Synchronization::queue_data"* [ %76, %75 ], [ %58, %56 ]
  %81 = phi %"struct.Halide::Runtime::Internal::Synchronization::queue_data"* [ %59, %75 ], [ %57, %56 ]
  %82 = icmp eq %"struct.Halide::Runtime::Internal::Synchronization::queue_data"* %65, null
  br i1 %82, label %83, label %56

; <label>:83:                                     ; preds = %77, %49
  %84 = phi %"struct.Halide::Runtime::Internal::Synchronization::queue_data"* [ %80, %77 ], [ %52, %49 ]
  %85 = phi %"struct.Halide::Runtime::Internal::Synchronization::queue_data"* [ %81, %77 ], [ %53, %49 ]
  %86 = phi %"struct.Halide::Runtime::Internal::Synchronization::queue_data"* [ null, %77 ], [ %54, %49 ]
  %87 = icmp eq %"struct.Halide::Runtime::Internal::Synchronization::queue_data"* %84, null
  br i1 %87, label %103, label %88

; <label>:88:                                     ; preds = %83
  %89 = getelementptr inbounds %"struct.Halide::Runtime::Internal::Synchronization::queue_data", %"struct.Halide::Runtime::Internal::Synchronization::queue_data"* %85, i64 0, i32 2
  store %"struct.Halide::Runtime::Internal::Synchronization::queue_data"* null, %"struct.Halide::Runtime::Internal::Synchronization::queue_data"** %89, align 8, !tbaa !51
  %90 = getelementptr inbounds %"struct.Halide::Runtime::Internal::Synchronization::bucket_pair", %"struct.Halide::Runtime::Internal::Synchronization::bucket_pair"* %5, i64 0, i32 1
  %91 = load %"struct.Halide::Runtime::Internal::Synchronization::hash_bucket"*, %"struct.Halide::Runtime::Internal::Synchronization::hash_bucket"** %90, align 8, !tbaa !75
  %92 = getelementptr inbounds %"struct.Halide::Runtime::Internal::Synchronization::hash_bucket", %"struct.Halide::Runtime::Internal::Synchronization::hash_bucket"* %91, i64 0, i32 1
  %93 = load %"struct.Halide::Runtime::Internal::Synchronization::queue_data"*, %"struct.Halide::Runtime::Internal::Synchronization::queue_data"** %92, align 8, !tbaa !72
  %94 = icmp eq %"struct.Halide::Runtime::Internal::Synchronization::queue_data"* %93, null
  br i1 %94, label %95, label %97

; <label>:95:                                     ; preds = %88
  store %"struct.Halide::Runtime::Internal::Synchronization::queue_data"* %84, %"struct.Halide::Runtime::Internal::Synchronization::queue_data"** %92, align 8, !tbaa !72
  %96 = getelementptr inbounds %"struct.Halide::Runtime::Internal::Synchronization::hash_bucket", %"struct.Halide::Runtime::Internal::Synchronization::hash_bucket"* %91, i64 0, i32 2
  br label %101

; <label>:97:                                     ; preds = %88
  %98 = getelementptr inbounds %"struct.Halide::Runtime::Internal::Synchronization::hash_bucket", %"struct.Halide::Runtime::Internal::Synchronization::hash_bucket"* %91, i64 0, i32 2
  %99 = load %"struct.Halide::Runtime::Internal::Synchronization::queue_data"*, %"struct.Halide::Runtime::Internal::Synchronization::queue_data"** %98, align 8, !tbaa !56
  %100 = getelementptr inbounds %"struct.Halide::Runtime::Internal::Synchronization::queue_data", %"struct.Halide::Runtime::Internal::Synchronization::queue_data"* %99, i64 0, i32 2
  store %"struct.Halide::Runtime::Internal::Synchronization::queue_data"* %84, %"struct.Halide::Runtime::Internal::Synchronization::queue_data"** %100, align 8, !tbaa !51
  br label %101

; <label>:101:                                    ; preds = %97, %95
  %102 = phi %"struct.Halide::Runtime::Internal::Synchronization::queue_data"** [ %98, %97 ], [ %96, %95 ]
  store %"struct.Halide::Runtime::Internal::Synchronization::queue_data"* %85, %"struct.Halide::Runtime::Internal::Synchronization::queue_data"** %102, align 8, !tbaa !56
  br label %103

; <label>:103:                                    ; preds = %101, %83, %15
  %104 = phi i1 [ true, %101 ], [ false, %83 ], [ false, %15 ]
  %105 = phi %"struct.Halide::Runtime::Internal::Synchronization::queue_data"* [ %86, %101 ], [ %86, %83 ], [ null, %15 ]
  %106 = getelementptr inbounds %"struct.Halide::Runtime::Internal::Synchronization::parking_control", %"struct.Halide::Runtime::Internal::Synchronization::parking_control"* %2, i64 0, i32 3
  %107 = load void (i8*, %"struct.Halide::Runtime::Internal::Synchronization::validate_action"*, i1, i1)*, void (i8*, %"struct.Halide::Runtime::Internal::Synchronization::validate_action"*, i1, i1)** %106, align 8, !tbaa !37
  %108 = icmp ne %"struct.Halide::Runtime::Internal::Synchronization::queue_data"* %105, null
  call void %107(i8* nonnull %12, %"struct.Halide::Runtime::Internal::Synchronization::validate_action"* nonnull dereferenceable(16) %6, i1 zeroext %108, i1 zeroext %104) #13
  br i1 %108, label %109, label %117

; <label>:109:                                    ; preds = %103
  %110 = getelementptr inbounds %"struct.Halide::Runtime::Internal::Synchronization::queue_data", %"struct.Halide::Runtime::Internal::Synchronization::queue_data"* %105, i64 0, i32 3
  store i64 %3, i64* %110, align 8, !tbaa !59
  %111 = getelementptr inbounds %"struct.Halide::Runtime::Internal::Synchronization::queue_data", %"struct.Halide::Runtime::Internal::Synchronization::queue_data"* %105, i64 0, i32 0, i32 0
  %112 = call i32 @pthread_mutex_lock(%struct.pthread_mutex_t* nonnull %111) #13
  call void @_ZN6Halide7Runtime8Internal15Synchronization18unlock_bucket_pairERNS2_11bucket_pairE(%"struct.Halide::Runtime::Internal::Synchronization::bucket_pair"* nonnull dereferenceable(16) %5) #15
  %113 = getelementptr inbounds %"struct.Halide::Runtime::Internal::Synchronization::queue_data", %"struct.Halide::Runtime::Internal::Synchronization::queue_data"* %105, i64 0, i32 0, i32 2
  store i8 0, i8* %113, align 8, !tbaa !60
  %114 = getelementptr inbounds %"struct.Halide::Runtime::Internal::Synchronization::queue_data", %"struct.Halide::Runtime::Internal::Synchronization::queue_data"* %105, i64 0, i32 0, i32 1
  %115 = call i32 @pthread_cond_signal(%struct.pthread_mutex_t* nonnull %114) #13
  %116 = call i32 @pthread_mutex_unlock(%struct.pthread_mutex_t* nonnull %111) #13
  br label %118

; <label>:117:                                    ; preds = %103
  call void @_ZN6Halide7Runtime8Internal15Synchronization18unlock_bucket_pairERNS2_11bucket_pairE(%"struct.Halide::Runtime::Internal::Synchronization::bucket_pair"* nonnull dereferenceable(16) %5) #15
  br label %118

; <label>:118:                                    ; preds = %117, %109
  %119 = load i8, i8* %8, align 8
  %120 = and i8 %119, 1
  %121 = icmp ne i8 %120, 0
  %122 = and i1 %108, %121
  %123 = zext i1 %122 to i32
  br label %124

; <label>:124:                                    ; preds = %118, %14
  %125 = phi i32 [ %123, %118 ], [ 0, %14 ]
  call void @llvm.lifetime.end.p0i8(i64 16, i8* nonnull %8) #14
  call void @llvm.lifetime.end.p0i8(i64 16, i8* nonnull %7) #14
  ret i32 %125
}

; Function Attrs: nounwind
define linkonce void @_ZN6Halide7Runtime8Internal15Synchronization16lock_bucket_pairEyy(%"struct.Halide::Runtime::Internal::Synchronization::bucket_pair"* noalias sret, i64, i64) local_unnamed_addr #0 {
  %4 = mul i64 %1, -7046029254386353131
  %5 = lshr i64 %4, 54
  %6 = mul i64 %2, -7046029254386353131
  %7 = lshr i64 %6, 54
  %8 = icmp eq i64 %5, %7
  br i1 %8, label %9, label %16

; <label>:9:                                      ; preds = %3
  %10 = getelementptr inbounds [1024 x %"struct.Halide::Runtime::Internal::Synchronization::hash_bucket"], [1024 x %"struct.Halide::Runtime::Internal::Synchronization::hash_bucket"]* bitcast ([24576 x i8]* @_ZN6Halide7Runtime8Internal15Synchronization13table_storageE to [1024 x %"struct.Halide::Runtime::Internal::Synchronization::hash_bucket"]*), i64 0, i64 %5
  %11 = getelementptr inbounds %"struct.Halide::Runtime::Internal::Synchronization::hash_bucket", %"struct.Halide::Runtime::Internal::Synchronization::hash_bucket"* %10, i64 0, i32 0, i32 0
  %12 = cmpxchg weak i64* %11, i64 0, i64 1 acquire monotonic
  %13 = extractvalue { i64, i1 } %12, 1
  br i1 %13, label %46, label %14

; <label>:14:                                     ; preds = %9
  %15 = getelementptr inbounds %"struct.Halide::Runtime::Internal::Synchronization::hash_bucket", %"struct.Halide::Runtime::Internal::Synchronization::hash_bucket"* %10, i64 0, i32 0
  tail call void @_ZN6Halide7Runtime8Internal15Synchronization9word_lock9lock_fullEv(%"class.Halide::Runtime::Internal::Synchronization::word_lock"* %15) #13
  br label %46

; <label>:16:                                     ; preds = %3
  %17 = icmp ult i64 %5, %7
  br i1 %17, label %18, label %32

; <label>:18:                                     ; preds = %16
  %19 = getelementptr inbounds [1024 x %"struct.Halide::Runtime::Internal::Synchronization::hash_bucket"], [1024 x %"struct.Halide::Runtime::Internal::Synchronization::hash_bucket"]* bitcast ([24576 x i8]* @_ZN6Halide7Runtime8Internal15Synchronization13table_storageE to [1024 x %"struct.Halide::Runtime::Internal::Synchronization::hash_bucket"]*), i64 0, i64 %5
  %20 = getelementptr inbounds [1024 x %"struct.Halide::Runtime::Internal::Synchronization::hash_bucket"], [1024 x %"struct.Halide::Runtime::Internal::Synchronization::hash_bucket"]* bitcast ([24576 x i8]* @_ZN6Halide7Runtime8Internal15Synchronization13table_storageE to [1024 x %"struct.Halide::Runtime::Internal::Synchronization::hash_bucket"]*), i64 0, i64 %7
  %21 = getelementptr inbounds %"struct.Halide::Runtime::Internal::Synchronization::hash_bucket", %"struct.Halide::Runtime::Internal::Synchronization::hash_bucket"* %19, i64 0, i32 0, i32 0
  %22 = cmpxchg weak i64* %21, i64 0, i64 1 acquire monotonic
  %23 = extractvalue { i64, i1 } %22, 1
  br i1 %23, label %26, label %24

; <label>:24:                                     ; preds = %18
  %25 = getelementptr inbounds %"struct.Halide::Runtime::Internal::Synchronization::hash_bucket", %"struct.Halide::Runtime::Internal::Synchronization::hash_bucket"* %19, i64 0, i32 0
  tail call void @_ZN6Halide7Runtime8Internal15Synchronization9word_lock9lock_fullEv(%"class.Halide::Runtime::Internal::Synchronization::word_lock"* %25) #13
  br label %26

; <label>:26:                                     ; preds = %24, %18
  %27 = getelementptr inbounds %"struct.Halide::Runtime::Internal::Synchronization::hash_bucket", %"struct.Halide::Runtime::Internal::Synchronization::hash_bucket"* %20, i64 0, i32 0, i32 0
  %28 = cmpxchg weak i64* %27, i64 0, i64 1 acquire monotonic
  %29 = extractvalue { i64, i1 } %28, 1
  br i1 %29, label %46, label %30

; <label>:30:                                     ; preds = %26
  %31 = getelementptr inbounds %"struct.Halide::Runtime::Internal::Synchronization::hash_bucket", %"struct.Halide::Runtime::Internal::Synchronization::hash_bucket"* %20, i64 0, i32 0
  tail call void @_ZN6Halide7Runtime8Internal15Synchronization9word_lock9lock_fullEv(%"class.Halide::Runtime::Internal::Synchronization::word_lock"* %31) #13
  br label %46

; <label>:32:                                     ; preds = %16
  %33 = getelementptr inbounds [1024 x %"struct.Halide::Runtime::Internal::Synchronization::hash_bucket"], [1024 x %"struct.Halide::Runtime::Internal::Synchronization::hash_bucket"]* bitcast ([24576 x i8]* @_ZN6Halide7Runtime8Internal15Synchronization13table_storageE to [1024 x %"struct.Halide::Runtime::Internal::Synchronization::hash_bucket"]*), i64 0, i64 %7
  %34 = getelementptr inbounds [1024 x %"struct.Halide::Runtime::Internal::Synchronization::hash_bucket"], [1024 x %"struct.Halide::Runtime::Internal::Synchronization::hash_bucket"]* bitcast ([24576 x i8]* @_ZN6Halide7Runtime8Internal15Synchronization13table_storageE to [1024 x %"struct.Halide::Runtime::Internal::Synchronization::hash_bucket"]*), i64 0, i64 %5
  %35 = getelementptr inbounds %"struct.Halide::Runtime::Internal::Synchronization::hash_bucket", %"struct.Halide::Runtime::Internal::Synchronization::hash_bucket"* %33, i64 0, i32 0, i32 0
  %36 = cmpxchg weak i64* %35, i64 0, i64 1 acquire monotonic
  %37 = extractvalue { i64, i1 } %36, 1
  br i1 %37, label %40, label %38

; <label>:38:                                     ; preds = %32
  %39 = getelementptr inbounds %"struct.Halide::Runtime::Internal::Synchronization::hash_bucket", %"struct.Halide::Runtime::Internal::Synchronization::hash_bucket"* %33, i64 0, i32 0
  tail call void @_ZN6Halide7Runtime8Internal15Synchronization9word_lock9lock_fullEv(%"class.Halide::Runtime::Internal::Synchronization::word_lock"* %39) #13
  br label %40

; <label>:40:                                     ; preds = %38, %32
  %41 = getelementptr inbounds %"struct.Halide::Runtime::Internal::Synchronization::hash_bucket", %"struct.Halide::Runtime::Internal::Synchronization::hash_bucket"* %34, i64 0, i32 0, i32 0
  %42 = cmpxchg weak i64* %41, i64 0, i64 1 acquire monotonic
  %43 = extractvalue { i64, i1 } %42, 1
  br i1 %43, label %46, label %44

; <label>:44:                                     ; preds = %40
  %45 = getelementptr inbounds %"struct.Halide::Runtime::Internal::Synchronization::hash_bucket", %"struct.Halide::Runtime::Internal::Synchronization::hash_bucket"* %34, i64 0, i32 0
  tail call void @_ZN6Halide7Runtime8Internal15Synchronization9word_lock9lock_fullEv(%"class.Halide::Runtime::Internal::Synchronization::word_lock"* %45) #13
  br label %46

; <label>:46:                                     ; preds = %44, %40, %30, %26, %14, %9
  %47 = phi %"struct.Halide::Runtime::Internal::Synchronization::hash_bucket"* [ %10, %9 ], [ %10, %14 ], [ %19, %26 ], [ %19, %30 ], [ %34, %40 ], [ %34, %44 ]
  %48 = phi %"struct.Halide::Runtime::Internal::Synchronization::hash_bucket"* [ %10, %9 ], [ %10, %14 ], [ %20, %26 ], [ %20, %30 ], [ %33, %40 ], [ %33, %44 ]
  %49 = getelementptr inbounds %"struct.Halide::Runtime::Internal::Synchronization::bucket_pair", %"struct.Halide::Runtime::Internal::Synchronization::bucket_pair"* %0, i64 0, i32 0
  store %"struct.Halide::Runtime::Internal::Synchronization::hash_bucket"* %47, %"struct.Halide::Runtime::Internal::Synchronization::hash_bucket"** %49, align 8, !tbaa !3
  %50 = getelementptr inbounds %"struct.Halide::Runtime::Internal::Synchronization::bucket_pair", %"struct.Halide::Runtime::Internal::Synchronization::bucket_pair"* %0, i64 0, i32 1
  store %"struct.Halide::Runtime::Internal::Synchronization::hash_bucket"* %48, %"struct.Halide::Runtime::Internal::Synchronization::hash_bucket"** %50, align 8, !tbaa !3
  ret void
}

; Function Attrs: nounwind
define linkonce void @_ZN6Halide7Runtime8Internal15Synchronization18unlock_bucket_pairERNS2_11bucket_pairE(%"struct.Halide::Runtime::Internal::Synchronization::bucket_pair"* dereferenceable(16)) local_unnamed_addr #0 {
  %2 = getelementptr inbounds %"struct.Halide::Runtime::Internal::Synchronization::bucket_pair", %"struct.Halide::Runtime::Internal::Synchronization::bucket_pair"* %0, i64 0, i32 0
  %3 = load %"struct.Halide::Runtime::Internal::Synchronization::hash_bucket"*, %"struct.Halide::Runtime::Internal::Synchronization::hash_bucket"** %2, align 8, !tbaa !73
  %4 = getelementptr inbounds %"struct.Halide::Runtime::Internal::Synchronization::bucket_pair", %"struct.Halide::Runtime::Internal::Synchronization::bucket_pair"* %0, i64 0, i32 1
  %5 = load %"struct.Halide::Runtime::Internal::Synchronization::hash_bucket"*, %"struct.Halide::Runtime::Internal::Synchronization::hash_bucket"** %4, align 8, !tbaa !75
  %6 = icmp eq %"struct.Halide::Runtime::Internal::Synchronization::hash_bucket"* %3, %5
  br i1 %6, label %7, label %16

; <label>:7:                                      ; preds = %1
  %8 = getelementptr inbounds %"struct.Halide::Runtime::Internal::Synchronization::hash_bucket", %"struct.Halide::Runtime::Internal::Synchronization::hash_bucket"* %3, i64 0, i32 0, i32 0
  %9 = atomicrmw and i64* %8, i64 -2 release
  %10 = and i64 %9, 2
  %11 = icmp eq i64 %10, 0
  %12 = icmp ugt i64 %9, 3
  %13 = and i1 %12, %11
  br i1 %13, label %14, label %56

; <label>:14:                                     ; preds = %7
  %15 = getelementptr inbounds %"struct.Halide::Runtime::Internal::Synchronization::hash_bucket", %"struct.Halide::Runtime::Internal::Synchronization::hash_bucket"* %3, i64 0, i32 0
  tail call void @_ZN6Halide7Runtime8Internal15Synchronization9word_lock11unlock_fullEv(%"class.Halide::Runtime::Internal::Synchronization::word_lock"* %15) #13
  br label %56

; <label>:16:                                     ; preds = %1
  %17 = icmp ugt %"struct.Halide::Runtime::Internal::Synchronization::hash_bucket"* %3, %5
  br i1 %17, label %18, label %37

; <label>:18:                                     ; preds = %16
  %19 = getelementptr inbounds %"struct.Halide::Runtime::Internal::Synchronization::hash_bucket", %"struct.Halide::Runtime::Internal::Synchronization::hash_bucket"* %3, i64 0, i32 0, i32 0
  %20 = atomicrmw and i64* %19, i64 -2 release
  %21 = and i64 %20, 2
  %22 = icmp eq i64 %21, 0
  %23 = icmp ugt i64 %20, 3
  %24 = and i1 %23, %22
  br i1 %24, label %25, label %27

; <label>:25:                                     ; preds = %18
  %26 = getelementptr inbounds %"struct.Halide::Runtime::Internal::Synchronization::hash_bucket", %"struct.Halide::Runtime::Internal::Synchronization::hash_bucket"* %3, i64 0, i32 0
  tail call void @_ZN6Halide7Runtime8Internal15Synchronization9word_lock11unlock_fullEv(%"class.Halide::Runtime::Internal::Synchronization::word_lock"* %26) #13
  br label %27

; <label>:27:                                     ; preds = %25, %18
  %28 = load %"struct.Halide::Runtime::Internal::Synchronization::hash_bucket"*, %"struct.Halide::Runtime::Internal::Synchronization::hash_bucket"** %4, align 8, !tbaa !75
  %29 = getelementptr inbounds %"struct.Halide::Runtime::Internal::Synchronization::hash_bucket", %"struct.Halide::Runtime::Internal::Synchronization::hash_bucket"* %28, i64 0, i32 0, i32 0
  %30 = atomicrmw and i64* %29, i64 -2 release
  %31 = and i64 %30, 2
  %32 = icmp eq i64 %31, 0
  %33 = icmp ugt i64 %30, 3
  %34 = and i1 %33, %32
  br i1 %34, label %35, label %56

; <label>:35:                                     ; preds = %27
  %36 = getelementptr inbounds %"struct.Halide::Runtime::Internal::Synchronization::hash_bucket", %"struct.Halide::Runtime::Internal::Synchronization::hash_bucket"* %28, i64 0, i32 0
  tail call void @_ZN6Halide7Runtime8Internal15Synchronization9word_lock11unlock_fullEv(%"class.Halide::Runtime::Internal::Synchronization::word_lock"* %36) #13
  br label %56

; <label>:37:                                     ; preds = %16
  %38 = getelementptr inbounds %"struct.Halide::Runtime::Internal::Synchronization::hash_bucket", %"struct.Halide::Runtime::Internal::Synchronization::hash_bucket"* %5, i64 0, i32 0, i32 0
  %39 = atomicrmw and i64* %38, i64 -2 release
  %40 = and i64 %39, 2
  %41 = icmp eq i64 %40, 0
  %42 = icmp ugt i64 %39, 3
  %43 = and i1 %42, %41
  br i1 %43, label %44, label %46

; <label>:44:                                     ; preds = %37
  %45 = getelementptr inbounds %"struct.Halide::Runtime::Internal::Synchronization::hash_bucket", %"struct.Halide::Runtime::Internal::Synchronization::hash_bucket"* %5, i64 0, i32 0
  tail call void @_ZN6Halide7Runtime8Internal15Synchronization9word_lock11unlock_fullEv(%"class.Halide::Runtime::Internal::Synchronization::word_lock"* %45) #13
  br label %46

; <label>:46:                                     ; preds = %44, %37
  %47 = load %"struct.Halide::Runtime::Internal::Synchronization::hash_bucket"*, %"struct.Halide::Runtime::Internal::Synchronization::hash_bucket"** %2, align 8, !tbaa !73
  %48 = getelementptr inbounds %"struct.Halide::Runtime::Internal::Synchronization::hash_bucket", %"struct.Halide::Runtime::Internal::Synchronization::hash_bucket"* %47, i64 0, i32 0, i32 0
  %49 = atomicrmw and i64* %48, i64 -2 release
  %50 = and i64 %49, 2
  %51 = icmp eq i64 %50, 0
  %52 = icmp ugt i64 %49, 3
  %53 = and i1 %52, %51
  br i1 %53, label %54, label %56

; <label>:54:                                     ; preds = %46
  %55 = getelementptr inbounds %"struct.Halide::Runtime::Internal::Synchronization::hash_bucket", %"struct.Halide::Runtime::Internal::Synchronization::hash_bucket"* %47, i64 0, i32 0
  tail call void @_ZN6Halide7Runtime8Internal15Synchronization9word_lock11unlock_fullEv(%"class.Halide::Runtime::Internal::Synchronization::word_lock"* %55) #13
  br label %56

; <label>:56:                                     ; preds = %54, %46, %35, %27, %14, %7
  ret void
}

; Function Attrs: nounwind
define linkonce i8* @_ZN6Halide7Runtime8Internal19spawn_thread_helperEPv(i8*) #0 {
  %2 = bitcast i8* %0 to void (i8*)**
  %3 = load void (i8*)*, void (i8*)** %2, align 8, !tbaa !42
  %4 = getelementptr inbounds i8, i8* %0, i64 8
  %5 = bitcast i8* %4 to i8**
  %6 = load i8*, i8** %5, align 8, !tbaa !45
  tail call void %3(i8* %6) #13
  ret i8* null
}

declare i32 @pthread_create(i64*, i8*, i8* (i8*)*, i8*) local_unnamed_addr #1

declare i8* @getenv(i8*) local_unnamed_addr #1

declare i32 @atoi(i8*) local_unnamed_addr #1

; Function Attrs: nounwind
define weak void @halide_thread_pool_cleanup() #0 {
  tail call void @halide_shutdown_thread_pool() #15
  ret void
}

; Function Attrs: nounwind
define weak void @halide_shutdown_thread_pool() local_unnamed_addr #0 {
  %1 = load i8, i8* getelementptr inbounds (%"struct.Halide::Runtime::Internal::work_queue_t", %"struct.Halide::Runtime::Internal::work_queue_t"* @_ZN6Halide7Runtime8Internal10work_queueE, i64 0, i32 12), align 1, !tbaa !17, !range !10
  %2 = icmp eq i8 %1, 0
  br i1 %2, label %16, label %3

; <label>:3:                                      ; preds = %0
  tail call void @halide_mutex_lock(%struct.halide_mutex* getelementptr inbounds (%"struct.Halide::Runtime::Internal::work_queue_t", %"struct.Halide::Runtime::Internal::work_queue_t"* @_ZN6Halide7Runtime8Internal10work_queueE, i64 0, i32 0)) #15
  store i8 1, i8* getelementptr inbounds (%"struct.Halide::Runtime::Internal::work_queue_t", %"struct.Halide::Runtime::Internal::work_queue_t"* @_ZN6Halide7Runtime8Internal10work_queueE, i64 0, i32 11), align 4, !tbaa !50
  tail call void @halide_cond_broadcast(%struct.halide_mutex* getelementptr inbounds (%"struct.Halide::Runtime::Internal::work_queue_t", %"struct.Halide::Runtime::Internal::work_queue_t"* @_ZN6Halide7Runtime8Internal10work_queueE, i64 0, i32 6)) #15
  tail call void @halide_cond_broadcast(%struct.halide_mutex* getelementptr inbounds (%"struct.Halide::Runtime::Internal::work_queue_t", %"struct.Halide::Runtime::Internal::work_queue_t"* @_ZN6Halide7Runtime8Internal10work_queueE, i64 0, i32 7)) #15
  tail call void @halide_cond_broadcast(%struct.halide_mutex* getelementptr inbounds (%"struct.Halide::Runtime::Internal::work_queue_t", %"struct.Halide::Runtime::Internal::work_queue_t"* @_ZN6Halide7Runtime8Internal10work_queueE, i64 0, i32 8)) #15
  tail call void @halide_mutex_unlock(%struct.halide_mutex* getelementptr inbounds (%"struct.Halide::Runtime::Internal::work_queue_t", %"struct.Halide::Runtime::Internal::work_queue_t"* @_ZN6Halide7Runtime8Internal10work_queueE, i64 0, i32 0)) #15
  %4 = load i32, i32* getelementptr inbounds (%"struct.Halide::Runtime::Internal::work_queue_t", %"struct.Halide::Runtime::Internal::work_queue_t"* @_ZN6Halide7Runtime8Internal10work_queueE, i64 0, i32 10), align 8, !tbaa !21
  %5 = icmp sgt i32 %4, 0
  br i1 %5, label %8, label %6

; <label>:6:                                      ; preds = %8, %3
  %7 = tail call i8* @memset(i8* nonnull bitcast (i32* getelementptr inbounds (%"struct.Halide::Runtime::Internal::work_queue_t", %"struct.Halide::Runtime::Internal::work_queue_t"* @_ZN6Halide7Runtime8Internal10work_queueE, i64 0, i32 2) to i8*), i32 0, i64 2100) #13
  br label %16

; <label>:8:                                      ; preds = %8, %3
  %9 = phi i64 [ %12, %8 ], [ 0, %3 ]
  %10 = getelementptr inbounds %"struct.Halide::Runtime::Internal::work_queue_t", %"struct.Halide::Runtime::Internal::work_queue_t"* @_ZN6Halide7Runtime8Internal10work_queueE, i64 0, i32 9, i64 %9
  %11 = load %struct.halide_thread*, %struct.halide_thread** %10, align 8, !tbaa !3
  tail call void @halide_join_thread(%struct.halide_thread* %11) #15
  %12 = add nuw nsw i64 %9, 1
  %13 = load i32, i32* getelementptr inbounds (%"struct.Halide::Runtime::Internal::work_queue_t", %"struct.Halide::Runtime::Internal::work_queue_t"* @_ZN6Halide7Runtime8Internal10work_queueE, i64 0, i32 10), align 8, !tbaa !21
  %14 = sext i32 %13 to i64
  %15 = icmp slt i64 %12, %14
  br i1 %15, label %8, label %6

; <label>:16:                                     ; preds = %6, %0
  ret void
}

declare i8* @memset(i8*, i32, i64) local_unnamed_addr #1

; Function Attrs: nounwind
define weak void @halide_join_thread(%struct.halide_thread*) local_unnamed_addr #0 {
  %2 = alloca i8*, align 8
  %3 = bitcast %struct.halide_thread* %0 to %"struct.Halide::Runtime::Internal::spawned_thread"*
  %4 = bitcast i8** %2 to i8*
  call void @llvm.lifetime.start.p0i8(i64 8, i8* nonnull %4) #14
  store i8* null, i8** %2, align 8, !tbaa !3
  %5 = getelementptr inbounds %"struct.Halide::Runtime::Internal::spawned_thread", %"struct.Halide::Runtime::Internal::spawned_thread"* %3, i64 0, i32 2
  %6 = load i64, i64* %5, align 8, !tbaa !46
  %7 = call i32 @pthread_join(i64 %6, i8** nonnull %2) #13
  %8 = bitcast %struct.halide_thread* %0 to i8*
  call void @free(i8* %8) #13
  call void @llvm.lifetime.end.p0i8(i64 8, i8* nonnull %4) #14
  ret void
}

declare i32 @pthread_join(i64, i8**) local_unnamed_addr #1

; Function Attrs: norecurse nounwind
define linkonce zeroext i1 @_ZN6Halide7Runtime8Internal15Synchronization24parking_control_validateEPvRNS2_15validate_actionE(i8*, %"struct.Halide::Runtime::Internal::Synchronization::validate_action"* dereferenceable(16)) #2 {
  ret i1 true
}

; Function Attrs: nounwind
define linkonce i64 @_ZN6Halide7Runtime8Internal15Synchronization10unpark_allEyy(i64, i64) local_unnamed_addr #0 {
  %3 = alloca [16 x %"struct.Halide::Runtime::Internal::Synchronization::queue_data"*], align 8
  %4 = tail call dereferenceable(24) %"struct.Halide::Runtime::Internal::Synchronization::hash_bucket"* @_ZN6Halide7Runtime8Internal15Synchronization11lock_bucketEy(i64 %0) #15
  %5 = getelementptr inbounds %"struct.Halide::Runtime::Internal::Synchronization::hash_bucket", %"struct.Halide::Runtime::Internal::Synchronization::hash_bucket"* %4, i64 0, i32 1
  %6 = load %"struct.Halide::Runtime::Internal::Synchronization::queue_data"*, %"struct.Halide::Runtime::Internal::Synchronization::queue_data"** %5, align 8, !tbaa !3
  %7 = bitcast [16 x %"struct.Halide::Runtime::Internal::Synchronization::queue_data"*]* %3 to i8*
  call void @llvm.lifetime.start.p0i8(i64 128, i8* nonnull %7) #14
  %8 = getelementptr inbounds [16 x %"struct.Halide::Runtime::Internal::Synchronization::queue_data"*], [16 x %"struct.Halide::Runtime::Internal::Synchronization::queue_data"*]* %3, i64 0, i64 0
  %9 = icmp eq %"struct.Halide::Runtime::Internal::Synchronization::queue_data"* %6, null
  br i1 %9, label %62, label %10

; <label>:10:                                     ; preds = %2
  %11 = getelementptr inbounds %"struct.Halide::Runtime::Internal::Synchronization::hash_bucket", %"struct.Halide::Runtime::Internal::Synchronization::hash_bucket"* %4, i64 0, i32 2
  br label %12

; <label>:12:                                     ; preds = %56, %10
  %13 = phi %"struct.Halide::Runtime::Internal::Synchronization::queue_data"* [ null, %10 ], [ %60, %56 ]
  %14 = phi %"struct.Halide::Runtime::Internal::Synchronization::queue_data"* [ %6, %10 ], [ %21, %56 ]
  %15 = phi i64 [ 16, %10 ], [ %59, %56 ]
  %16 = phi %"struct.Halide::Runtime::Internal::Synchronization::queue_data"** [ %8, %10 ], [ %58, %56 ]
  %17 = phi i64 [ 0, %10 ], [ %57, %56 ]
  %18 = getelementptr inbounds %"struct.Halide::Runtime::Internal::Synchronization::queue_data", %"struct.Halide::Runtime::Internal::Synchronization::queue_data"* %14, i64 0, i32 1
  %19 = load atomic i64, i64* %18 monotonic, align 8
  %20 = getelementptr inbounds %"struct.Halide::Runtime::Internal::Synchronization::queue_data", %"struct.Halide::Runtime::Internal::Synchronization::queue_data"* %14, i64 0, i32 2
  %21 = load %"struct.Halide::Runtime::Internal::Synchronization::queue_data"*, %"struct.Halide::Runtime::Internal::Synchronization::queue_data"** %20, align 8, !tbaa !51
  %22 = icmp eq i64 %19, %0
  store %"struct.Halide::Runtime::Internal::Synchronization::queue_data"* %21, %"struct.Halide::Runtime::Internal::Synchronization::queue_data"** %5, align 8, !tbaa !3
  br i1 %22, label %23, label %56

; <label>:23:                                     ; preds = %12
  %24 = load %"struct.Halide::Runtime::Internal::Synchronization::queue_data"*, %"struct.Halide::Runtime::Internal::Synchronization::queue_data"** %11, align 8, !tbaa !56
  %25 = icmp eq %"struct.Halide::Runtime::Internal::Synchronization::queue_data"* %24, %14
  br i1 %25, label %26, label %27

; <label>:26:                                     ; preds = %23
  store %"struct.Halide::Runtime::Internal::Synchronization::queue_data"* %13, %"struct.Halide::Runtime::Internal::Synchronization::queue_data"** %11, align 8, !tbaa !56
  br label %27

; <label>:27:                                     ; preds = %26, %23
  %28 = icmp eq i64 %17, %15
  br i1 %28, label %29, label %48

; <label>:29:                                     ; preds = %27
  %30 = shl i64 %15, 4
  %31 = call i8* @malloc(i64 %30) #13
  %32 = bitcast i8* %31 to %"struct.Halide::Runtime::Internal::Synchronization::queue_data"**
  %33 = icmp eq i64 %15, 0
  br i1 %33, label %34, label %37

; <label>:34:                                     ; preds = %37, %29
  %35 = shl i64 %15, 1
  %36 = icmp eq %"struct.Halide::Runtime::Internal::Synchronization::queue_data"** %16, %8
  br i1 %36, label %48, label %46

; <label>:37:                                     ; preds = %37, %29
  %38 = phi i64 [ %44, %37 ], [ 0, %29 ]
  %39 = getelementptr inbounds %"struct.Halide::Runtime::Internal::Synchronization::queue_data"*, %"struct.Halide::Runtime::Internal::Synchronization::queue_data"** %16, i64 %38
  %40 = bitcast %"struct.Halide::Runtime::Internal::Synchronization::queue_data"** %39 to i64*
  %41 = load i64, i64* %40, align 8, !tbaa !3
  %42 = getelementptr inbounds %"struct.Halide::Runtime::Internal::Synchronization::queue_data"*, %"struct.Halide::Runtime::Internal::Synchronization::queue_data"** %32, i64 %38
  %43 = bitcast %"struct.Halide::Runtime::Internal::Synchronization::queue_data"** %42 to i64*
  store i64 %41, i64* %43, align 8, !tbaa !3
  %44 = add nuw i64 %38, 1
  %45 = icmp eq i64 %44, %15
  br i1 %45, label %34, label %37

; <label>:46:                                     ; preds = %34
  %47 = bitcast %"struct.Halide::Runtime::Internal::Synchronization::queue_data"** %16 to i8*
  call void @free(i8* %47) #13
  br label %48

; <label>:48:                                     ; preds = %46, %34, %27
  %49 = phi %"struct.Halide::Runtime::Internal::Synchronization::queue_data"** [ %16, %27 ], [ %32, %34 ], [ %32, %46 ]
  %50 = phi i64 [ %15, %27 ], [ %35, %34 ], [ %35, %46 ]
  %51 = getelementptr inbounds %"struct.Halide::Runtime::Internal::Synchronization::queue_data", %"struct.Halide::Runtime::Internal::Synchronization::queue_data"* %14, i64 0, i32 3
  store i64 %1, i64* %51, align 8, !tbaa !59
  %52 = add i64 %17, 1
  %53 = getelementptr inbounds %"struct.Halide::Runtime::Internal::Synchronization::queue_data"*, %"struct.Halide::Runtime::Internal::Synchronization::queue_data"** %49, i64 %17
  store %"struct.Halide::Runtime::Internal::Synchronization::queue_data"* %14, %"struct.Halide::Runtime::Internal::Synchronization::queue_data"** %53, align 8, !tbaa !3
  %54 = getelementptr inbounds %"struct.Halide::Runtime::Internal::Synchronization::queue_data", %"struct.Halide::Runtime::Internal::Synchronization::queue_data"* %14, i64 0, i32 0, i32 0
  %55 = call i32 @pthread_mutex_lock(%struct.pthread_mutex_t* nonnull %54) #13
  br label %56

; <label>:56:                                     ; preds = %48, %12
  %57 = phi i64 [ %52, %48 ], [ %17, %12 ]
  %58 = phi %"struct.Halide::Runtime::Internal::Synchronization::queue_data"** [ %49, %48 ], [ %16, %12 ]
  %59 = phi i64 [ %50, %48 ], [ %15, %12 ]
  %60 = phi %"struct.Halide::Runtime::Internal::Synchronization::queue_data"* [ %13, %48 ], [ %14, %12 ]
  %61 = icmp eq %"struct.Halide::Runtime::Internal::Synchronization::queue_data"* %21, null
  br i1 %61, label %62, label %12

; <label>:62:                                     ; preds = %56, %2
  %63 = phi i64 [ 0, %2 ], [ %57, %56 ]
  %64 = phi %"struct.Halide::Runtime::Internal::Synchronization::queue_data"** [ %8, %2 ], [ %58, %56 ]
  %65 = getelementptr inbounds %"struct.Halide::Runtime::Internal::Synchronization::hash_bucket", %"struct.Halide::Runtime::Internal::Synchronization::hash_bucket"* %4, i64 0, i32 0, i32 0
  %66 = atomicrmw and i64* %65, i64 -2 release
  %67 = and i64 %66, 2
  %68 = icmp eq i64 %67, 0
  %69 = icmp ugt i64 %66, 3
  %70 = and i1 %69, %68
  br i1 %70, label %71, label %73

; <label>:71:                                     ; preds = %62
  %72 = getelementptr inbounds %"struct.Halide::Runtime::Internal::Synchronization::hash_bucket", %"struct.Halide::Runtime::Internal::Synchronization::hash_bucket"* %4, i64 0, i32 0
  call void @_ZN6Halide7Runtime8Internal15Synchronization9word_lock11unlock_fullEv(%"class.Halide::Runtime::Internal::Synchronization::word_lock"* nonnull %72) #13
  br label %73

; <label>:73:                                     ; preds = %71, %62
  %74 = icmp eq i64 %63, 0
  br i1 %74, label %85, label %76

; <label>:75:                                     ; preds = %76
  br i1 %74, label %85, label %87

; <label>:76:                                     ; preds = %76, %73
  %77 = phi i64 [ %83, %76 ], [ 0, %73 ]
  %78 = getelementptr inbounds %"struct.Halide::Runtime::Internal::Synchronization::queue_data"*, %"struct.Halide::Runtime::Internal::Synchronization::queue_data"** %64, i64 %77
  %79 = load %"struct.Halide::Runtime::Internal::Synchronization::queue_data"*, %"struct.Halide::Runtime::Internal::Synchronization::queue_data"** %78, align 8, !tbaa !3
  %80 = getelementptr inbounds %"struct.Halide::Runtime::Internal::Synchronization::queue_data", %"struct.Halide::Runtime::Internal::Synchronization::queue_data"* %79, i64 0, i32 0, i32 2
  store i8 0, i8* %80, align 8, !tbaa !60
  %81 = getelementptr inbounds %"struct.Halide::Runtime::Internal::Synchronization::queue_data", %"struct.Halide::Runtime::Internal::Synchronization::queue_data"* %79, i64 0, i32 0, i32 1
  %82 = call i32 @pthread_cond_signal(%struct.pthread_mutex_t* nonnull %81) #13
  %83 = add nuw i64 %77, 1
  %84 = icmp eq i64 %83, %63
  br i1 %84, label %75, label %76

; <label>:85:                                     ; preds = %87, %75, %73
  %86 = icmp eq %"struct.Halide::Runtime::Internal::Synchronization::queue_data"** %64, %8
  br i1 %86, label %97, label %95

; <label>:87:                                     ; preds = %87, %75
  %88 = phi i64 [ %93, %87 ], [ 0, %75 ]
  %89 = getelementptr inbounds %"struct.Halide::Runtime::Internal::Synchronization::queue_data"*, %"struct.Halide::Runtime::Internal::Synchronization::queue_data"** %64, i64 %88
  %90 = load %"struct.Halide::Runtime::Internal::Synchronization::queue_data"*, %"struct.Halide::Runtime::Internal::Synchronization::queue_data"** %89, align 8, !tbaa !3
  %91 = getelementptr inbounds %"struct.Halide::Runtime::Internal::Synchronization::queue_data", %"struct.Halide::Runtime::Internal::Synchronization::queue_data"* %90, i64 0, i32 0, i32 0
  %92 = call i32 @pthread_mutex_unlock(%struct.pthread_mutex_t* %91) #13
  %93 = add nuw i64 %88, 1
  %94 = icmp eq i64 %93, %63
  br i1 %94, label %85, label %87

; <label>:95:                                     ; preds = %85
  %96 = bitcast %"struct.Halide::Runtime::Internal::Synchronization::queue_data"** %64 to i8*
  call void @free(i8* %96) #13
  br label %97

; <label>:97:                                     ; preds = %95, %85
  call void @llvm.lifetime.end.p0i8(i64 128, i8* nonnull %7) #14
  ret i64 %63
}

; Function Attrs: nounwind
define linkonce i64 @_ZN6Halide7Runtime8Internal15Synchronization29signal_parking_control_unparkEPvib(i8*, i32, i1 zeroext) #0 {
  br i1 %2, label %8, label %4

; <label>:4:                                      ; preds = %3
  %5 = getelementptr inbounds i8, i8* %0, i64 32
  %6 = bitcast i8* %5 to i64**
  %7 = load i64*, i64** %6, align 8, !tbaa !76
  store atomic i64 0, i64* %7 monotonic, align 8
  br label %8

; <label>:8:                                      ; preds = %4, %3
  ret i64 0
}

; Function Attrs: nounwind
define weak void @halide_cond_signal(%struct.halide_mutex*) local_unnamed_addr #0 {
  %2 = alloca %"struct.Halide::Runtime::Internal::Synchronization::wait_parking_control", align 8
  %3 = getelementptr inbounds %struct.halide_mutex, %struct.halide_mutex* %0, i64 0, i32 0, i64 0
  %4 = load atomic i64, i64* %3 monotonic, align 8
  %5 = icmp eq i64 %4, 0
  br i1 %5, label %18, label %6

; <label>:6:                                      ; preds = %1
  %7 = bitcast %"struct.Halide::Runtime::Internal::Synchronization::wait_parking_control"* %2 to i8*
  call void @llvm.lifetime.start.p0i8(i64 48, i8* nonnull %7) #14
  %8 = inttoptr i64 %4 to %"class.Halide::Runtime::Internal::Synchronization::word_lock"*
  %9 = getelementptr inbounds %"struct.Halide::Runtime::Internal::Synchronization::wait_parking_control", %"struct.Halide::Runtime::Internal::Synchronization::wait_parking_control"* %2, i64 0, i32 0, i32 0
  store i1 (i8*, %"struct.Halide::Runtime::Internal::Synchronization::validate_action"*)* @_ZN6Halide7Runtime8Internal15Synchronization24parking_control_validateEPvRNS2_15validate_actionE, i1 (i8*, %"struct.Halide::Runtime::Internal::Synchronization::validate_action"*)** %9, align 8, !tbaa !40
  %10 = getelementptr inbounds %"struct.Halide::Runtime::Internal::Synchronization::wait_parking_control", %"struct.Halide::Runtime::Internal::Synchronization::wait_parking_control"* %2, i64 0, i32 0, i32 1
  store void (i8*)* @_ZN6Halide7Runtime8Internal15Synchronization28parking_control_before_sleepEPv, void (i8*)** %10, align 8, !tbaa !35
  %11 = getelementptr inbounds %"struct.Halide::Runtime::Internal::Synchronization::wait_parking_control", %"struct.Halide::Runtime::Internal::Synchronization::wait_parking_control"* %2, i64 0, i32 0, i32 2
  %12 = getelementptr inbounds %"struct.Halide::Runtime::Internal::Synchronization::wait_parking_control", %"struct.Halide::Runtime::Internal::Synchronization::wait_parking_control"* %2, i64 0, i32 0, i32 3
  store void (i8*, %"struct.Halide::Runtime::Internal::Synchronization::validate_action"*, i1, i1)* @_ZN6Halide7Runtime8Internal15Synchronization32parking_control_requeue_callbackEPvRKNS2_15validate_actionEbb, void (i8*, %"struct.Halide::Runtime::Internal::Synchronization::validate_action"*, i1, i1)** %12, align 8, !tbaa !37
  %13 = getelementptr inbounds %"struct.Halide::Runtime::Internal::Synchronization::wait_parking_control", %"struct.Halide::Runtime::Internal::Synchronization::wait_parking_control"* %2, i64 0, i32 1
  store i64* %3, i64** %13, align 8, !tbaa !76
  %14 = getelementptr inbounds %"struct.Halide::Runtime::Internal::Synchronization::wait_parking_control", %"struct.Halide::Runtime::Internal::Synchronization::wait_parking_control"* %2, i64 0, i32 2
  store %"class.Halide::Runtime::Internal::Synchronization::word_lock"* %8, %"class.Halide::Runtime::Internal::Synchronization::word_lock"** %14, align 8, !tbaa !78
  store i64 (i8*, i32, i1)* @_ZN6Halide7Runtime8Internal15Synchronization29signal_parking_control_unparkEPvib, i64 (i8*, i32, i1)** %11, align 8, !tbaa !41
  %15 = ptrtoint %struct.halide_mutex* %0 to i64
  %16 = getelementptr inbounds %"struct.Halide::Runtime::Internal::Synchronization::wait_parking_control", %"struct.Halide::Runtime::Internal::Synchronization::wait_parking_control"* %2, i64 0, i32 0
  %17 = call i64 @_ZN6Halide7Runtime8Internal15Synchronization10unpark_oneEyRNS2_15parking_controlE(i64 %15, %"struct.Halide::Runtime::Internal::Synchronization::parking_control"* nonnull dereferenceable(32) %16) #13
  call void @llvm.lifetime.end.p0i8(i64 48, i8* nonnull %7) #14
  br label %18

; <label>:18:                                     ; preds = %6, %1
  ret void
}

; Function Attrs: nounwind
define weak i32 @halide_set_num_threads(i32) local_unnamed_addr #0 {
  %2 = icmp slt i32 %0, 0
  br i1 %2, label %3, label %4

; <label>:3:                                      ; preds = %1
  tail call void @halide_error(i8* null, i8* getelementptr inbounds ([38 x i8], [38 x i8]* @.str.2, i64 0, i64 0)) #13
  tail call void @halide_mutex_lock(%struct.halide_mutex* getelementptr inbounds (%"struct.Halide::Runtime::Internal::work_queue_t", %"struct.Halide::Runtime::Internal::work_queue_t"* @_ZN6Halide7Runtime8Internal10work_queueE, i64 0, i32 0)) #15
  br label %8

; <label>:4:                                      ; preds = %1
  tail call void @halide_mutex_lock(%struct.halide_mutex* getelementptr inbounds (%"struct.Halide::Runtime::Internal::work_queue_t", %"struct.Halide::Runtime::Internal::work_queue_t"* @_ZN6Halide7Runtime8Internal10work_queueE, i64 0, i32 0)) #15
  %5 = icmp eq i32 %0, 0
  br i1 %5, label %6, label %8

; <label>:6:                                      ; preds = %4
  %7 = tail call i32 @_ZN6Halide7Runtime8Internal27default_desired_num_threadsEv() #15
  br label %8

; <label>:8:                                      ; preds = %6, %4, %3
  %9 = phi i32 [ %7, %6 ], [ %0, %4 ], [ %0, %3 ]
  %10 = load i32, i32* getelementptr inbounds (%"struct.Halide::Runtime::Internal::work_queue_t", %"struct.Halide::Runtime::Internal::work_queue_t"* @_ZN6Halide7Runtime8Internal10work_queueE, i64 0, i32 1), align 8, !tbaa !22
  %11 = tail call i32 @_ZN6Halide7Runtime8Internal17clamp_num_threadsEi(i32 %9) #15
  store i32 %11, i32* getelementptr inbounds (%"struct.Halide::Runtime::Internal::work_queue_t", %"struct.Halide::Runtime::Internal::work_queue_t"* @_ZN6Halide7Runtime8Internal10work_queueE, i64 0, i32 1), align 8, !tbaa !22
  tail call void @halide_mutex_unlock(%struct.halide_mutex* getelementptr inbounds (%"struct.Halide::Runtime::Internal::work_queue_t", %"struct.Halide::Runtime::Internal::work_queue_t"* @_ZN6Halide7Runtime8Internal10work_queueE, i64 0, i32 0)) #15
  ret i32 %10
}

; Function Attrs: norecurse nounwind
define weak i32 (i8*, i32 (i8*, i32, i8*)*, i32, i8*)* @halide_set_custom_do_task(i32 (i8*, i32 (i8*, i32, i8*)*, i32, i8*)*) local_unnamed_addr #2 {
  %2 = load i32 (i8*, i32 (i8*, i32, i8*)*, i32, i8*)*, i32 (i8*, i32 (i8*, i32, i8*)*, i32, i8*)** @_ZN6Halide7Runtime8Internal14custom_do_taskE, align 8, !tbaa !3
  store i32 (i8*, i32 (i8*, i32, i8*)*, i32, i8*)* %0, i32 (i8*, i32 (i8*, i32, i8*)*, i32, i8*)** @_ZN6Halide7Runtime8Internal14custom_do_taskE, align 8, !tbaa !3
  ret i32 (i8*, i32 (i8*, i32, i8*)*, i32, i8*)* %2
}

; Function Attrs: norecurse nounwind
define weak i32 (i8*, i32 (i8*, i32, i8*)*, i32, i32, i8*)* @halide_set_custom_do_par_for(i32 (i8*, i32 (i8*, i32, i8*)*, i32, i32, i8*)*) local_unnamed_addr #2 {
  %2 = load i32 (i8*, i32 (i8*, i32, i8*)*, i32, i32, i8*)*, i32 (i8*, i32 (i8*, i32, i8*)*, i32, i32, i8*)** @_ZN6Halide7Runtime8Internal17custom_do_par_forE, align 8, !tbaa !3
  store i32 (i8*, i32 (i8*, i32, i8*)*, i32, i32, i8*)* %0, i32 (i8*, i32 (i8*, i32, i8*)*, i32, i32, i8*)** @_ZN6Halide7Runtime8Internal17custom_do_par_forE, align 8, !tbaa !3
  ret i32 (i8*, i32 (i8*, i32, i8*)*, i32, i32, i8*)* %2
}

; Function Attrs: nounwind
define weak i32 @halide_do_par_for(i8*, i32 (i8*, i32, i8*)*, i32, i32, i8*) local_unnamed_addr #0 {
  %6 = load i32 (i8*, i32 (i8*, i32, i8*)*, i32, i32, i8*)*, i32 (i8*, i32 (i8*, i32, i8*)*, i32, i32, i8*)** @_ZN6Halide7Runtime8Internal17custom_do_par_forE, align 8, !tbaa !3
  %7 = tail call i32 %6(i8* %0, i32 (i8*, i32, i8*)* %1, i32 %2, i32 %3, i8* %4) #13
  ret i32 %7
}

; Function Attrs: nounwind
define weak i8* @halide_default_get_symbol(i8*) #0 {
  %2 = tail call i8* @dlsym(i8* inttoptr (i64 -2 to i8*), i8* %0) #13
  ret i8* %2
}

declare i8* @dlsym(i8*, i8*) local_unnamed_addr #1

; Function Attrs: nounwind
define weak i8* @halide_default_load_library(i8*) #0 {
  %2 = tail call i8* @dlopen(i8* %0, i32 5) #13
  ret i8* %2
}

declare i8* @dlopen(i8*, i32) local_unnamed_addr #1

; Function Attrs: nounwind
define weak i8* @halide_default_get_library_symbol(i8*, i8*) #0 {
  %3 = icmp eq i8* %0, null
  %4 = select i1 %3, i8* inttoptr (i64 -2 to i8*), i8* %0
  %5 = tail call i8* @dlsym(i8* %4, i8* %1) #13
  ret i8* %5
}

; Function Attrs: norecurse nounwind
define weak i8* (i8*)* @halide_set_custom_get_symbol(i8* (i8*)*) local_unnamed_addr #2 {
  %2 = load i8* (i8*)*, i8* (i8*)** @_ZN6Halide7Runtime8Internal17custom_get_symbolE, align 8, !tbaa !3
  store i8* (i8*)* %0, i8* (i8*)** @_ZN6Halide7Runtime8Internal17custom_get_symbolE, align 8, !tbaa !3
  ret i8* (i8*)* %2
}

; Function Attrs: norecurse nounwind
define weak i8* (i8*)* @halide_set_custom_load_library(i8* (i8*)*) local_unnamed_addr #2 {
  %2 = load i8* (i8*)*, i8* (i8*)** @_ZN6Halide7Runtime8Internal19custom_load_libraryE, align 8, !tbaa !3
  store i8* (i8*)* %0, i8* (i8*)** @_ZN6Halide7Runtime8Internal19custom_load_libraryE, align 8, !tbaa !3
  ret i8* (i8*)* %2
}

; Function Attrs: norecurse nounwind
define weak i8* (i8*, i8*)* @halide_set_custom_get_library_symbol(i8* (i8*, i8*)*) local_unnamed_addr #2 {
  %2 = load i8* (i8*, i8*)*, i8* (i8*, i8*)** @_ZN6Halide7Runtime8Internal25custom_get_library_symbolE, align 8, !tbaa !3
  store i8* (i8*, i8*)* %0, i8* (i8*, i8*)** @_ZN6Halide7Runtime8Internal25custom_get_library_symbolE, align 8, !tbaa !3
  ret i8* (i8*, i8*)* %2
}

; Function Attrs: nounwind
define weak i8* @halide_get_symbol(i8*) local_unnamed_addr #0 {
  %2 = load i8* (i8*)*, i8* (i8*)** @_ZN6Halide7Runtime8Internal17custom_get_symbolE, align 8, !tbaa !3
  %3 = tail call i8* %2(i8* %0) #13
  ret i8* %3
}

; Function Attrs: nounwind
define weak i8* @halide_load_library(i8*) local_unnamed_addr #0 {
  %2 = load i8* (i8*)*, i8* (i8*)** @_ZN6Halide7Runtime8Internal19custom_load_libraryE, align 8, !tbaa !3
  %3 = tail call i8* %2(i8* %0) #13
  ret i8* %3
}

; Function Attrs: nounwind
define weak i8* @halide_get_library_symbol(i8*, i8*) local_unnamed_addr #0 {
  %3 = load i8* (i8*, i8*)*, i8* (i8*, i8*)** @_ZN6Halide7Runtime8Internal25custom_get_library_symbolE, align 8, !tbaa !3
  %4 = tail call i8* %3(i8* %0, i8* %1) #13
  ret i8* %4
}

; Function Attrs: alwaysinline norecurse nounwind
define linkonce i32 @_halide_buffer_get_dimensions(%struct.halide_buffer_t*) local_unnamed_addr #4 {
  %2 = getelementptr inbounds %struct.halide_buffer_t, %struct.halide_buffer_t* %0, i64 0, i32 5
  %3 = load i32, i32* %2, align 4, !tbaa !79
  ret i32 %3
}

; Function Attrs: alwaysinline norecurse nounwind
define linkonce i8* @_halide_buffer_get_host(%struct.halide_buffer_t*) local_unnamed_addr #4 {
  %2 = getelementptr inbounds %struct.halide_buffer_t, %struct.halide_buffer_t* %0, i64 0, i32 2
  %3 = load i8*, i8** %2, align 8, !tbaa !83
  ret i8* %3
}

; Function Attrs: alwaysinline norecurse nounwind
define linkonce i64 @_halide_buffer_get_device(%struct.halide_buffer_t*) local_unnamed_addr #4 {
  %2 = getelementptr inbounds %struct.halide_buffer_t, %struct.halide_buffer_t* %0, i64 0, i32 0
  %3 = load i64, i64* %2, align 8, !tbaa !84
  ret i64 %3
}

; Function Attrs: alwaysinline norecurse nounwind
define linkonce %struct.halide_device_interface_t* @_halide_buffer_get_device_interface(%struct.halide_buffer_t*) local_unnamed_addr #4 {
  %2 = getelementptr inbounds %struct.halide_buffer_t, %struct.halide_buffer_t* %0, i64 0, i32 1
  %3 = load %struct.halide_device_interface_t*, %struct.halide_device_interface_t** %2, align 8, !tbaa !85
  ret %struct.halide_device_interface_t* %3
}

; Function Attrs: alwaysinline norecurse nounwind
define linkonce i32 @_halide_buffer_get_min(%struct.halide_buffer_t*, i32) local_unnamed_addr #4 {
  %3 = getelementptr inbounds %struct.halide_buffer_t, %struct.halide_buffer_t* %0, i64 0, i32 6
  %4 = load %struct.halide_dimension_t*, %struct.halide_dimension_t** %3, align 8, !tbaa !86
  %5 = sext i32 %1 to i64
  %6 = getelementptr inbounds %struct.halide_dimension_t, %struct.halide_dimension_t* %4, i64 %5, i32 0
  %7 = load i32, i32* %6, align 4, !tbaa !87
  ret i32 %7
}

; Function Attrs: alwaysinline norecurse nounwind
define linkonce i32 @_halide_buffer_get_max(%struct.halide_buffer_t*, i32) local_unnamed_addr #4 {
  %3 = getelementptr inbounds %struct.halide_buffer_t, %struct.halide_buffer_t* %0, i64 0, i32 6
  %4 = load %struct.halide_dimension_t*, %struct.halide_dimension_t** %3, align 8, !tbaa !86
  %5 = sext i32 %1 to i64
  %6 = getelementptr inbounds %struct.halide_dimension_t, %struct.halide_dimension_t* %4, i64 %5, i32 0
  %7 = load i32, i32* %6, align 4, !tbaa !87
  %8 = getelementptr inbounds %struct.halide_dimension_t, %struct.halide_dimension_t* %4, i64 %5, i32 1
  %9 = load i32, i32* %8, align 4, !tbaa !89
  %10 = add i32 %7, -1
  %11 = add i32 %10, %9
  ret i32 %11
}

; Function Attrs: alwaysinline norecurse nounwind
define linkonce i32 @_halide_buffer_get_extent(%struct.halide_buffer_t*, i32) local_unnamed_addr #4 {
  %3 = getelementptr inbounds %struct.halide_buffer_t, %struct.halide_buffer_t* %0, i64 0, i32 6
  %4 = load %struct.halide_dimension_t*, %struct.halide_dimension_t** %3, align 8, !tbaa !86
  %5 = sext i32 %1 to i64
  %6 = getelementptr inbounds %struct.halide_dimension_t, %struct.halide_dimension_t* %4, i64 %5, i32 1
  %7 = load i32, i32* %6, align 4, !tbaa !89
  ret i32 %7
}

; Function Attrs: alwaysinline norecurse nounwind
define linkonce i32 @_halide_buffer_get_stride(%struct.halide_buffer_t*, i32) local_unnamed_addr #4 {
  %3 = getelementptr inbounds %struct.halide_buffer_t, %struct.halide_buffer_t* %0, i64 0, i32 6
  %4 = load %struct.halide_dimension_t*, %struct.halide_dimension_t** %3, align 8, !tbaa !86
  %5 = sext i32 %1 to i64
  %6 = getelementptr inbounds %struct.halide_dimension_t, %struct.halide_dimension_t* %4, i64 %5, i32 2
  %7 = load i32, i32* %6, align 4, !tbaa !90
  ret i32 %7
}

; Function Attrs: alwaysinline norecurse nounwind
define linkonce i32 @_halide_buffer_set_host_dirty(%struct.halide_buffer_t*, i1 zeroext) local_unnamed_addr #4 {
  %3 = getelementptr inbounds %struct.halide_buffer_t, %struct.halide_buffer_t* %0, i64 0, i32 3
  %4 = load i64, i64* %3, align 8, !tbaa !91
  %5 = and i64 %4, -2
  %6 = or i64 %4, 1
  %7 = select i1 %1, i64 %6, i64 %5
  store i64 %7, i64* %3, align 8, !tbaa !91
  ret i32 0
}

; Function Attrs: alwaysinline norecurse nounwind
define linkonce i32 @_halide_buffer_set_device_dirty(%struct.halide_buffer_t*, i1 zeroext) local_unnamed_addr #4 {
  %3 = getelementptr inbounds %struct.halide_buffer_t, %struct.halide_buffer_t* %0, i64 0, i32 3
  %4 = load i64, i64* %3, align 8, !tbaa !91
  %5 = and i64 %4, -3
  %6 = or i64 %4, 2
  %7 = select i1 %1, i64 %6, i64 %5
  store i64 %7, i64* %3, align 8, !tbaa !91
  ret i32 0
}

; Function Attrs: alwaysinline norecurse nounwind
define linkonce zeroext i1 @_halide_buffer_get_host_dirty(%struct.halide_buffer_t*) local_unnamed_addr #4 {
  %2 = getelementptr inbounds %struct.halide_buffer_t, %struct.halide_buffer_t* %0, i64 0, i32 3
  %3 = load i64, i64* %2, align 8, !tbaa !91
  %4 = and i64 %3, 1
  %5 = icmp ne i64 %4, 0
  ret i1 %5
}

; Function Attrs: alwaysinline norecurse nounwind
define linkonce zeroext i1 @_halide_buffer_get_device_dirty(%struct.halide_buffer_t*) local_unnamed_addr #4 {
  %2 = getelementptr inbounds %struct.halide_buffer_t, %struct.halide_buffer_t* %0, i64 0, i32 3
  %3 = load i64, i64* %2, align 8, !tbaa !91
  %4 = and i64 %3, 2
  %5 = icmp ne i64 %4, 0
  ret i1 %5
}

; Function Attrs: alwaysinline norecurse nounwind
define linkonce %struct.halide_dimension_t* @_halide_buffer_get_shape(%struct.halide_buffer_t*) local_unnamed_addr #4 {
  %2 = getelementptr inbounds %struct.halide_buffer_t, %struct.halide_buffer_t* %0, i64 0, i32 6
  %3 = load %struct.halide_dimension_t*, %struct.halide_dimension_t** %2, align 8, !tbaa !86
  ret %struct.halide_dimension_t* %3
}

; Function Attrs: alwaysinline norecurse nounwind
define linkonce zeroext i1 @_halide_buffer_is_bounds_query(%struct.halide_buffer_t*) local_unnamed_addr #4 {
  %2 = getelementptr inbounds %struct.halide_buffer_t, %struct.halide_buffer_t* %0, i64 0, i32 2
  %3 = load i8*, i8** %2, align 8, !tbaa !83
  %4 = icmp eq i8* %3, null
  br i1 %4, label %5, label %9

; <label>:5:                                      ; preds = %1
  %6 = getelementptr inbounds %struct.halide_buffer_t, %struct.halide_buffer_t* %0, i64 0, i32 0
  %7 = load i64, i64* %6, align 8, !tbaa !84
  %8 = icmp eq i64 %7, 0
  br label %9

; <label>:9:                                      ; preds = %5, %1
  %10 = phi i1 [ false, %1 ], [ %8, %5 ]
  ret i1 %10
}

; Function Attrs: alwaysinline norecurse nounwind
define linkonce zeroext i8 @_halide_buffer_get_type_code(%struct.halide_buffer_t*) local_unnamed_addr #4 {
  %2 = getelementptr inbounds %struct.halide_buffer_t, %struct.halide_buffer_t* %0, i64 0, i32 4, i32 0
  %3 = load i8, i8* %2, align 8, !tbaa !92
  ret i8 %3
}

; Function Attrs: alwaysinline norecurse nounwind
define linkonce zeroext i8 @_halide_buffer_get_type_bits(%struct.halide_buffer_t*) local_unnamed_addr #4 {
  %2 = getelementptr inbounds %struct.halide_buffer_t, %struct.halide_buffer_t* %0, i64 0, i32 4, i32 1
  %3 = load i8, i8* %2, align 1, !tbaa !93
  ret i8 %3
}

; Function Attrs: alwaysinline norecurse nounwind
define linkonce zeroext i16 @_halide_buffer_get_type_lanes(%struct.halide_buffer_t*) local_unnamed_addr #4 {
  %2 = getelementptr inbounds %struct.halide_buffer_t, %struct.halide_buffer_t* %0, i64 0, i32 4, i32 2
  %3 = load i16, i16* %2, align 2, !tbaa !94
  ret i16 %3
}

; Function Attrs: alwaysinline nounwind
define linkonce %struct.halide_buffer_t* @_halide_buffer_init(%struct.halide_buffer_t*, %struct.halide_dimension_t*, i8*, i64, %struct.halide_device_interface_t*, i32, i32, i32, %struct.halide_dimension_t*, i64) local_unnamed_addr #5 {
  %11 = getelementptr inbounds %struct.halide_buffer_t, %struct.halide_buffer_t* %0, i64 0, i32 2
  store i8* %2, i8** %11, align 8, !tbaa !83
  %12 = getelementptr inbounds %struct.halide_buffer_t, %struct.halide_buffer_t* %0, i64 0, i32 0
  store i64 %3, i64* %12, align 8, !tbaa !84
  %13 = getelementptr inbounds %struct.halide_buffer_t, %struct.halide_buffer_t* %0, i64 0, i32 1
  store %struct.halide_device_interface_t* %4, %struct.halide_device_interface_t** %13, align 8, !tbaa !85
  %14 = trunc i32 %5 to i8
  %15 = getelementptr inbounds %struct.halide_buffer_t, %struct.halide_buffer_t* %0, i64 0, i32 4, i32 0
  store i8 %14, i8* %15, align 8, !tbaa !92
  %16 = trunc i32 %6 to i8
  %17 = getelementptr inbounds %struct.halide_buffer_t, %struct.halide_buffer_t* %0, i64 0, i32 4, i32 1
  store i8 %16, i8* %17, align 1, !tbaa !93
  %18 = getelementptr inbounds %struct.halide_buffer_t, %struct.halide_buffer_t* %0, i64 0, i32 4, i32 2
  store i16 1, i16* %18, align 2, !tbaa !94
  %19 = getelementptr inbounds %struct.halide_buffer_t, %struct.halide_buffer_t* %0, i64 0, i32 5
  store i32 %7, i32* %19, align 4, !tbaa !79
  %20 = getelementptr inbounds %struct.halide_buffer_t, %struct.halide_buffer_t* %0, i64 0, i32 6
  store %struct.halide_dimension_t* %1, %struct.halide_dimension_t** %20, align 8, !tbaa !86
  %21 = icmp ne %struct.halide_dimension_t* %8, %1
  %22 = icmp sgt i32 %7, 0
  %23 = and i1 %21, %22
  br i1 %23, label %24, label %38

; <label>:24:                                     ; preds = %10
  %25 = zext i32 %7 to i64
  %26 = bitcast %struct.halide_dimension_t* %1 to i8*
  %27 = bitcast %struct.halide_dimension_t* %8 to i8*
  tail call void @llvm.memcpy.p0i8.p0i8.i64(i8* align 4 %26, i8* align 4 %27, i64 16, i1 false), !tbaa.struct !95
  %28 = icmp eq i32 %7, 1
  br i1 %28, label %38, label %29

; <label>:29:                                     ; preds = %29, %24
  %30 = phi i64 [ %36, %29 ], [ 1, %24 ]
  %31 = load %struct.halide_dimension_t*, %struct.halide_dimension_t** %20, align 8, !tbaa !86
  %32 = getelementptr inbounds %struct.halide_dimension_t, %struct.halide_dimension_t* %8, i64 %30
  %33 = getelementptr inbounds %struct.halide_dimension_t, %struct.halide_dimension_t* %31, i64 %30
  %34 = bitcast %struct.halide_dimension_t* %33 to i8*
  %35 = bitcast %struct.halide_dimension_t* %32 to i8*
  tail call void @llvm.memcpy.p0i8.p0i8.i64(i8* align 4 %34, i8* align 4 %35, i64 16, i1 false), !tbaa.struct !95
  %36 = add nuw nsw i64 %30, 1
  %37 = icmp eq i64 %36, %25
  br i1 %37, label %38, label %29

; <label>:38:                                     ; preds = %29, %24, %10
  %39 = getelementptr inbounds %struct.halide_buffer_t, %struct.halide_buffer_t* %0, i64 0, i32 3
  store i64 %9, i64* %39, align 8, !tbaa !91
  ret %struct.halide_buffer_t* %0
}

; Function Attrs: argmemonly nounwind
declare void @llvm.memcpy.p0i8.p0i8.i64(i8* nocapture writeonly, i8* nocapture readonly, i64, i1) #3

; Function Attrs: alwaysinline nounwind
define linkonce %struct.halide_buffer_t* @_halide_buffer_init_from_buffer(%struct.halide_buffer_t*, %struct.halide_dimension_t*, %struct.halide_buffer_t*) local_unnamed_addr #5 {
  %4 = getelementptr inbounds %struct.halide_buffer_t, %struct.halide_buffer_t* %2, i64 0, i32 2
  %5 = bitcast i8** %4 to i64*
  %6 = load i64, i64* %5, align 8, !tbaa !83
  %7 = getelementptr inbounds %struct.halide_buffer_t, %struct.halide_buffer_t* %0, i64 0, i32 2
  %8 = bitcast i8** %7 to i64*
  store i64 %6, i64* %8, align 8, !tbaa !83
  %9 = getelementptr inbounds %struct.halide_buffer_t, %struct.halide_buffer_t* %2, i64 0, i32 0
  %10 = load i64, i64* %9, align 8, !tbaa !84
  %11 = getelementptr inbounds %struct.halide_buffer_t, %struct.halide_buffer_t* %0, i64 0, i32 0
  store i64 %10, i64* %11, align 8, !tbaa !84
  %12 = getelementptr inbounds %struct.halide_buffer_t, %struct.halide_buffer_t* %2, i64 0, i32 1
  %13 = bitcast %struct.halide_device_interface_t** %12 to i64*
  %14 = load i64, i64* %13, align 8, !tbaa !85
  %15 = getelementptr inbounds %struct.halide_buffer_t, %struct.halide_buffer_t* %0, i64 0, i32 1
  %16 = bitcast %struct.halide_device_interface_t** %15 to i64*
  store i64 %14, i64* %16, align 8, !tbaa !85
  %17 = getelementptr inbounds %struct.halide_buffer_t, %struct.halide_buffer_t* %0, i64 0, i32 4, i32 0
  %18 = getelementptr inbounds %struct.halide_buffer_t, %struct.halide_buffer_t* %2, i64 0, i32 4, i32 0
  %19 = bitcast i8* %18 to i32*
  %20 = bitcast i8* %17 to i32*
  %21 = load i32, i32* %19, align 2
  store i32 %21, i32* %20, align 8
  %22 = getelementptr inbounds %struct.halide_buffer_t, %struct.halide_buffer_t* %2, i64 0, i32 5
  %23 = load i32, i32* %22, align 4, !tbaa !79
  %24 = getelementptr inbounds %struct.halide_buffer_t, %struct.halide_buffer_t* %0, i64 0, i32 5
  store i32 %23, i32* %24, align 4, !tbaa !79
  %25 = getelementptr inbounds %struct.halide_buffer_t, %struct.halide_buffer_t* %0, i64 0, i32 6
  store %struct.halide_dimension_t* %1, %struct.halide_dimension_t** %25, align 8, !tbaa !86
  %26 = getelementptr inbounds %struct.halide_buffer_t, %struct.halide_buffer_t* %2, i64 0, i32 3
  %27 = load i64, i64* %26, align 8, !tbaa !91
  %28 = getelementptr inbounds %struct.halide_buffer_t, %struct.halide_buffer_t* %0, i64 0, i32 3
  store i64 %27, i64* %28, align 8, !tbaa !91
  %29 = icmp sgt i32 %23, 0
  br i1 %29, label %30, label %37

; <label>:30:                                     ; preds = %3
  %31 = getelementptr inbounds %struct.halide_buffer_t, %struct.halide_buffer_t* %2, i64 0, i32 6
  %32 = bitcast %struct.halide_dimension_t** %31 to i8**
  %33 = load i8*, i8** %32, align 8, !tbaa !86
  %34 = bitcast %struct.halide_dimension_t* %1 to i8*
  tail call void @llvm.memcpy.p0i8.p0i8.i64(i8* align 4 %34, i8* align 4 %33, i64 16, i1 false), !tbaa.struct !95
  %35 = load i32, i32* %24, align 4, !tbaa !79
  %36 = icmp sgt i32 %35, 1
  br i1 %36, label %38, label %37

; <label>:37:                                     ; preds = %38, %30, %3
  ret %struct.halide_buffer_t* %0

; <label>:38:                                     ; preds = %38, %30
  %39 = phi i64 [ %46, %38 ], [ 1, %30 ]
  %40 = load %struct.halide_dimension_t*, %struct.halide_dimension_t** %25, align 8, !tbaa !86
  %41 = load %struct.halide_dimension_t*, %struct.halide_dimension_t** %31, align 8, !tbaa !86
  %42 = getelementptr inbounds %struct.halide_dimension_t, %struct.halide_dimension_t* %41, i64 %39
  %43 = getelementptr inbounds %struct.halide_dimension_t, %struct.halide_dimension_t* %40, i64 %39
  %44 = bitcast %struct.halide_dimension_t* %43 to i8*
  %45 = bitcast %struct.halide_dimension_t* %42 to i8*
  tail call void @llvm.memcpy.p0i8.p0i8.i64(i8* align 4 %44, i8* align 4 %45, i64 16, i1 false), !tbaa.struct !95
  %46 = add nuw nsw i64 %39, 1
  %47 = load i32, i32* %24, align 4, !tbaa !79
  %48 = sext i32 %47 to i64
  %49 = icmp slt i64 %46, %48
  br i1 %49, label %38, label %37
}

; Function Attrs: alwaysinline nounwind
define linkonce %struct.halide_buffer_t* @_halide_buffer_crop(i8*, %struct.halide_buffer_t*, %struct.halide_dimension_t*, %struct.halide_buffer_t*, i32*, i32*) local_unnamed_addr #5 {
  %7 = bitcast %struct.halide_buffer_t* %1 to i8*
  %8 = bitcast %struct.halide_buffer_t* %3 to i8*
  tail call void @llvm.memcpy.p0i8.p0i8.i64(i8* align 8 %7, i8* align 8 %8, i64 56, i1 false), !tbaa.struct !97
  %9 = getelementptr inbounds %struct.halide_buffer_t, %struct.halide_buffer_t* %1, i64 0, i32 6
  store %struct.halide_dimension_t* %2, %struct.halide_dimension_t** %9, align 8, !tbaa !86
  %10 = getelementptr inbounds %struct.halide_buffer_t, %struct.halide_buffer_t* %1, i64 0, i32 5
  %11 = load i32, i32* %10, align 4, !tbaa !79
  %12 = icmp sgt i32 %11, 0
  br i1 %12, label %13, label %16

; <label>:13:                                     ; preds = %6
  %14 = getelementptr inbounds %struct.halide_buffer_t, %struct.halide_buffer_t* %3, i64 0, i32 6
  %15 = load %struct.halide_dimension_t*, %struct.halide_dimension_t** %14, align 8, !tbaa !86
  br label %21

; <label>:16:                                     ; preds = %21, %6
  %17 = phi i64 [ 0, %6 ], [ %46, %21 ]
  %18 = getelementptr inbounds %struct.halide_buffer_t, %struct.halide_buffer_t* %1, i64 0, i32 2
  %19 = load i8*, i8** %18, align 8, !tbaa !83
  %20 = icmp eq i8* %19, null
  br i1 %20, label %59, label %51

; <label>:21:                                     ; preds = %21, %13
  %22 = phi %struct.halide_dimension_t* [ %2, %13 ], [ %32, %21 ]
  %23 = phi %struct.halide_dimension_t* [ %15, %13 ], [ %38, %21 ]
  %24 = phi i64 [ 0, %13 ], [ %47, %21 ]
  %25 = phi i64 [ 0, %13 ], [ %46, %21 ]
  %26 = getelementptr inbounds %struct.halide_dimension_t, %struct.halide_dimension_t* %23, i64 %24
  %27 = getelementptr inbounds %struct.halide_dimension_t, %struct.halide_dimension_t* %22, i64 %24
  %28 = bitcast %struct.halide_dimension_t* %27 to i8*
  %29 = bitcast %struct.halide_dimension_t* %26 to i8*
  tail call void @llvm.memcpy.p0i8.p0i8.i64(i8* align 4 %28, i8* align 4 %29, i64 16, i1 false), !tbaa.struct !95
  %30 = getelementptr inbounds i32, i32* %4, i64 %24
  %31 = load i32, i32* %30, align 4, !tbaa !96
  %32 = load %struct.halide_dimension_t*, %struct.halide_dimension_t** %9, align 8, !tbaa !86
  %33 = getelementptr inbounds %struct.halide_dimension_t, %struct.halide_dimension_t* %32, i64 %24, i32 0
  store i32 %31, i32* %33, align 4, !tbaa !87
  %34 = getelementptr inbounds i32, i32* %5, i64 %24
  %35 = load i32, i32* %34, align 4, !tbaa !96
  %36 = getelementptr inbounds %struct.halide_dimension_t, %struct.halide_dimension_t* %32, i64 %24, i32 1
  store i32 %35, i32* %36, align 4, !tbaa !89
  %37 = load i32, i32* %30, align 4, !tbaa !96
  %38 = load %struct.halide_dimension_t*, %struct.halide_dimension_t** %14, align 8, !tbaa !86
  %39 = getelementptr inbounds %struct.halide_dimension_t, %struct.halide_dimension_t* %38, i64 %24, i32 0
  %40 = load i32, i32* %39, align 4, !tbaa !87
  %41 = sub nsw i32 %37, %40
  %42 = getelementptr inbounds %struct.halide_dimension_t, %struct.halide_dimension_t* %38, i64 %24, i32 2
  %43 = load i32, i32* %42, align 4, !tbaa !90
  %44 = mul nsw i32 %41, %43
  %45 = sext i32 %44 to i64
  %46 = add nsw i64 %25, %45
  %47 = add nuw nsw i64 %24, 1
  %48 = load i32, i32* %10, align 4, !tbaa !79
  %49 = sext i32 %48 to i64
  %50 = icmp slt i64 %47, %49
  br i1 %50, label %21, label %16

; <label>:51:                                     ; preds = %16
  %52 = getelementptr inbounds %struct.halide_buffer_t, %struct.halide_buffer_t* %3, i64 0, i32 4, i32 1
  %53 = load i8, i8* %52, align 1, !tbaa !99
  %54 = zext i8 %53 to i64
  %55 = add nuw nsw i64 %54, 7
  %56 = lshr i64 %55, 3
  %57 = mul nsw i64 %56, %17
  %58 = getelementptr inbounds i8, i8* %19, i64 %57
  store i8* %58, i8** %18, align 8, !tbaa !83
  br label %59

; <label>:59:                                     ; preds = %51, %16
  %60 = getelementptr inbounds %struct.halide_buffer_t, %struct.halide_buffer_t* %1, i64 0, i32 1
  store %struct.halide_device_interface_t* null, %struct.halide_device_interface_t** %60, align 8, !tbaa !85
  %61 = getelementptr inbounds %struct.halide_buffer_t, %struct.halide_buffer_t* %1, i64 0, i32 0
  store i64 0, i64* %61, align 8, !tbaa !84
  %62 = getelementptr inbounds %struct.halide_buffer_t, %struct.halide_buffer_t* %3, i64 0, i32 1
  %63 = load %struct.halide_device_interface_t*, %struct.halide_device_interface_t** %62, align 8, !tbaa !85
  %64 = icmp eq %struct.halide_device_interface_t* %63, null
  br i1 %64, label %69, label %65

; <label>:65:                                     ; preds = %59
  %66 = getelementptr inbounds %struct.halide_device_interface_t, %struct.halide_device_interface_t* %63, i64 0, i32 9
  %67 = load i32 (i8*, %struct.halide_buffer_t*, %struct.halide_buffer_t*)*, i32 (i8*, %struct.halide_buffer_t*, %struct.halide_buffer_t*)** %66, align 8, !tbaa !100
  %68 = tail call i32 %67(i8* %0, %struct.halide_buffer_t* nonnull %3, %struct.halide_buffer_t* nonnull %1) #13
  br label %69

; <label>:69:                                     ; preds = %65, %59
  ret %struct.halide_buffer_t* %1
}

; Function Attrs: alwaysinline nounwind
define linkonce void @_halide_buffer_retire_crop_after_extern_stage(i8*, i8*) local_unnamed_addr #5 {
  %3 = bitcast i8* %1 to %struct.halide_buffer_t**
  %4 = load %struct.halide_buffer_t*, %struct.halide_buffer_t** %3, align 8, !tbaa !3
  %5 = getelementptr inbounds i8, i8* %1, i64 8
  %6 = bitcast i8* %5 to %struct.halide_buffer_t**
  %7 = load %struct.halide_buffer_t*, %struct.halide_buffer_t** %6, align 8, !tbaa !3
  %8 = getelementptr inbounds %struct.halide_buffer_t, %struct.halide_buffer_t* %4, i64 0, i32 0
  %9 = load i64, i64* %8, align 8, !tbaa !84
  %10 = icmp eq i64 %9, 0
  br i1 %10, label %11, label %13

; <label>:11:                                     ; preds = %2
  %12 = getelementptr inbounds %struct.halide_buffer_t, %struct.halide_buffer_t* %4, i64 0, i32 3
  br label %44

; <label>:13:                                     ; preds = %2
  %14 = getelementptr inbounds %struct.halide_buffer_t, %struct.halide_buffer_t* %7, i64 0, i32 0
  %15 = load i64, i64* %14, align 8, !tbaa !84
  %16 = icmp eq i64 %15, 0
  %17 = getelementptr inbounds %struct.halide_buffer_t, %struct.halide_buffer_t* %4, i64 0, i32 3
  %18 = load i64, i64* %17, align 8, !tbaa !91
  %19 = and i64 %18, 2
  %20 = icmp ne i64 %19, 0
  br i1 %16, label %21, label %33

; <label>:21:                                     ; preds = %13
  %22 = getelementptr inbounds %struct.halide_buffer_t, %struct.halide_buffer_t* %4, i64 0, i32 1
  br i1 %20, label %23, label %28

; <label>:23:                                     ; preds = %21
  %24 = load %struct.halide_device_interface_t*, %struct.halide_device_interface_t** %22, align 8, !tbaa !85
  %25 = getelementptr inbounds %struct.halide_device_interface_t, %struct.halide_device_interface_t* %24, i64 0, i32 4
  %26 = load i32 (i8*, %struct.halide_buffer_t*)*, i32 (i8*, %struct.halide_buffer_t*)** %25, align 8, !tbaa !102
  %27 = tail call i32 %26(i8* %0, %struct.halide_buffer_t* nonnull %4) #13
  br label %28

; <label>:28:                                     ; preds = %23, %21
  %29 = load %struct.halide_device_interface_t*, %struct.halide_device_interface_t** %22, align 8, !tbaa !85
  %30 = getelementptr inbounds %struct.halide_device_interface_t, %struct.halide_device_interface_t* %29, i64 0, i32 1
  %31 = load i32 (i8*, %struct.halide_buffer_t*)*, i32 (i8*, %struct.halide_buffer_t*)** %30, align 8, !tbaa !103
  %32 = tail call i32 %31(i8* %0, %struct.halide_buffer_t* nonnull %4) #13
  br label %44

; <label>:33:                                     ; preds = %13
  br i1 %20, label %34, label %38

; <label>:34:                                     ; preds = %33
  %35 = getelementptr inbounds %struct.halide_buffer_t, %struct.halide_buffer_t* %7, i64 0, i32 3
  %36 = load i64, i64* %35, align 8, !tbaa !91
  %37 = or i64 %36, 2
  store i64 %37, i64* %35, align 8, !tbaa !91
  br label %38

; <label>:38:                                     ; preds = %34, %33
  %39 = getelementptr inbounds %struct.halide_buffer_t, %struct.halide_buffer_t* %4, i64 0, i32 1
  %40 = load %struct.halide_device_interface_t*, %struct.halide_device_interface_t** %39, align 8, !tbaa !85
  %41 = getelementptr inbounds %struct.halide_device_interface_t, %struct.halide_device_interface_t* %40, i64 0, i32 11
  %42 = load i32 (i8*, %struct.halide_buffer_t*)*, i32 (i8*, %struct.halide_buffer_t*)** %41, align 8, !tbaa !104
  %43 = tail call i32 %42(i8* %0, %struct.halide_buffer_t* nonnull %4) #13
  br label %44

; <label>:44:                                     ; preds = %38, %28, %11
  %45 = phi i64* [ %12, %11 ], [ %17, %28 ], [ %17, %38 ]
  %46 = load i64, i64* %45, align 8, !tbaa !91
  %47 = and i64 %46, 1
  %48 = icmp eq i64 %47, 0
  br i1 %48, label %53, label %49

; <label>:49:                                     ; preds = %44
  %50 = getelementptr inbounds %struct.halide_buffer_t, %struct.halide_buffer_t* %7, i64 0, i32 3
  %51 = load i64, i64* %50, align 8, !tbaa !91
  %52 = or i64 %51, 1
  store i64 %52, i64* %50, align 8, !tbaa !91
  br label %53

; <label>:53:                                     ; preds = %49, %44
  ret void
}

; Function Attrs: alwaysinline nounwind
define linkonce void @_halide_buffer_retire_crops_after_extern_stage(i8*, i8*) local_unnamed_addr #5 {
  %3 = bitcast i8* %1 to %struct.halide_buffer_t**
  %4 = load %struct.halide_buffer_t*, %struct.halide_buffer_t** %3, align 8, !tbaa !3
  %5 = icmp eq %struct.halide_buffer_t* %4, null
  br i1 %5, label %60, label %6

; <label>:6:                                      ; preds = %56, %2
  %7 = phi %struct.halide_buffer_t* [ %58, %56 ], [ %4, %2 ]
  %8 = phi %struct.halide_buffer_t** [ %57, %56 ], [ %3, %2 ]
  %9 = getelementptr inbounds %struct.halide_buffer_t*, %struct.halide_buffer_t** %8, i64 1
  %10 = load %struct.halide_buffer_t*, %struct.halide_buffer_t** %9, align 8, !tbaa !3
  %11 = getelementptr inbounds %struct.halide_buffer_t, %struct.halide_buffer_t* %7, i64 0, i32 0
  %12 = load i64, i64* %11, align 8, !tbaa !84
  %13 = icmp eq i64 %12, 0
  br i1 %13, label %14, label %16

; <label>:14:                                     ; preds = %6
  %15 = getelementptr inbounds %struct.halide_buffer_t, %struct.halide_buffer_t* %7, i64 0, i32 3
  br label %47

; <label>:16:                                     ; preds = %6
  %17 = getelementptr inbounds %struct.halide_buffer_t, %struct.halide_buffer_t* %10, i64 0, i32 0
  %18 = load i64, i64* %17, align 8, !tbaa !84
  %19 = icmp eq i64 %18, 0
  %20 = getelementptr inbounds %struct.halide_buffer_t, %struct.halide_buffer_t* %7, i64 0, i32 3
  %21 = load i64, i64* %20, align 8, !tbaa !91
  %22 = and i64 %21, 2
  %23 = icmp ne i64 %22, 0
  br i1 %19, label %24, label %36

; <label>:24:                                     ; preds = %16
  %25 = getelementptr inbounds %struct.halide_buffer_t, %struct.halide_buffer_t* %7, i64 0, i32 1
  br i1 %23, label %26, label %31

; <label>:26:                                     ; preds = %24
  %27 = load %struct.halide_device_interface_t*, %struct.halide_device_interface_t** %25, align 8, !tbaa !85
  %28 = getelementptr inbounds %struct.halide_device_interface_t, %struct.halide_device_interface_t* %27, i64 0, i32 4
  %29 = load i32 (i8*, %struct.halide_buffer_t*)*, i32 (i8*, %struct.halide_buffer_t*)** %28, align 8, !tbaa !102
  %30 = tail call i32 %29(i8* %0, %struct.halide_buffer_t* nonnull %7) #13
  br label %31

; <label>:31:                                     ; preds = %26, %24
  %32 = load %struct.halide_device_interface_t*, %struct.halide_device_interface_t** %25, align 8, !tbaa !85
  %33 = getelementptr inbounds %struct.halide_device_interface_t, %struct.halide_device_interface_t* %32, i64 0, i32 1
  %34 = load i32 (i8*, %struct.halide_buffer_t*)*, i32 (i8*, %struct.halide_buffer_t*)** %33, align 8, !tbaa !103
  %35 = tail call i32 %34(i8* %0, %struct.halide_buffer_t* nonnull %7) #13
  br label %47

; <label>:36:                                     ; preds = %16
  br i1 %23, label %37, label %41

; <label>:37:                                     ; preds = %36
  %38 = getelementptr inbounds %struct.halide_buffer_t, %struct.halide_buffer_t* %10, i64 0, i32 3
  %39 = load i64, i64* %38, align 8, !tbaa !91
  %40 = or i64 %39, 2
  store i64 %40, i64* %38, align 8, !tbaa !91
  br label %41

; <label>:41:                                     ; preds = %37, %36
  %42 = getelementptr inbounds %struct.halide_buffer_t, %struct.halide_buffer_t* %7, i64 0, i32 1
  %43 = load %struct.halide_device_interface_t*, %struct.halide_device_interface_t** %42, align 8, !tbaa !85
  %44 = getelementptr inbounds %struct.halide_device_interface_t, %struct.halide_device_interface_t* %43, i64 0, i32 11
  %45 = load i32 (i8*, %struct.halide_buffer_t*)*, i32 (i8*, %struct.halide_buffer_t*)** %44, align 8, !tbaa !104
  %46 = tail call i32 %45(i8* %0, %struct.halide_buffer_t* nonnull %7) #13
  br label %47

; <label>:47:                                     ; preds = %41, %31, %14
  %48 = phi i64* [ %15, %14 ], [ %20, %31 ], [ %20, %41 ]
  %49 = load i64, i64* %48, align 8, !tbaa !91
  %50 = and i64 %49, 1
  %51 = icmp eq i64 %50, 0
  br i1 %51, label %56, label %52

; <label>:52:                                     ; preds = %47
  %53 = getelementptr inbounds %struct.halide_buffer_t, %struct.halide_buffer_t* %10, i64 0, i32 3
  %54 = load i64, i64* %53, align 8, !tbaa !91
  %55 = or i64 %54, 1
  store i64 %55, i64* %53, align 8, !tbaa !91
  br label %56

; <label>:56:                                     ; preds = %52, %47
  %57 = getelementptr inbounds %struct.halide_buffer_t*, %struct.halide_buffer_t** %8, i64 2
  %58 = load %struct.halide_buffer_t*, %struct.halide_buffer_t** %57, align 8, !tbaa !3
  %59 = icmp eq %struct.halide_buffer_t* %58, null
  br i1 %59, label %60, label %6

; <label>:60:                                     ; preds = %56, %2
  ret void
}

; Function Attrs: alwaysinline norecurse nounwind
define linkonce %struct.halide_buffer_t* @_halide_buffer_set_bounds(%struct.halide_buffer_t*, i32, i32, i32) local_unnamed_addr #4 {
  %5 = getelementptr inbounds %struct.halide_buffer_t, %struct.halide_buffer_t* %0, i64 0, i32 6
  %6 = load %struct.halide_dimension_t*, %struct.halide_dimension_t** %5, align 8, !tbaa !86
  %7 = sext i32 %1 to i64
  %8 = getelementptr inbounds %struct.halide_dimension_t, %struct.halide_dimension_t* %6, i64 %7, i32 0
  store i32 %2, i32* %8, align 4, !tbaa !87
  %9 = getelementptr inbounds %struct.halide_dimension_t, %struct.halide_dimension_t* %6, i64 %7, i32 1
  store i32 %3, i32* %9, align 4, !tbaa !89
  ret %struct.halide_buffer_t* %0
}

; Function Attrs: alwaysinline nounwind
define linkonce void @call_destructor(i8*, void (i8*, i8*)*, i8**, i1 zeroext) #5 comdat {
  %5 = load i8*, i8** %2, align 8, !tbaa !3
  store i8* null, i8** %2, align 8, !tbaa !3
  %6 = icmp eq i8* %5, null
  %7 = xor i1 %3, true
  %8 = or i1 %6, %7
  br i1 %8, label %10, label %9

; <label>:9:                                      ; preds = %4
  tail call void %1(i8* %0, i8* nonnull %5) #13
  br label %10

; <label>:10:                                     ; preds = %9, %4
  ret void
}

; Function Attrs: alwaysinline nounwind readnone uwtable
define linkonce_odr float @sqrt_f32(float %x) #6 {
  %y = tail call float @llvm.sqrt.f32(float %x) #8
  ret float %y
}

; Function Attrs: nounwind readnone speculatable
declare float @llvm.sqrt.f32(float) #7

; Function Attrs: alwaysinline nounwind readnone uwtable
define linkonce_odr double @sqrt_f64(double %x) #6 {
  %y = tail call double @llvm.sqrt.f64(double %x) #8
  ret double %y
}

; Function Attrs: nounwind readnone speculatable
declare double @llvm.sqrt.f64(double) #7

; Function Attrs: alwaysinline nounwind readnone uwtable
define linkonce_odr float @sin_f32(float %x) #6 {
  %y = tail call float @llvm.sin.f32(float %x) #8
  ret float %y
}

; Function Attrs: nounwind readnone speculatable
declare float @llvm.sin.f32(float) #7

; Function Attrs: alwaysinline nounwind readnone uwtable
define linkonce_odr double @sin_f64(double %x) #6 {
  %y = tail call double @llvm.sin.f64(double %x) #8
  ret double %y
}

; Function Attrs: nounwind readnone speculatable
declare double @llvm.sin.f64(double) #7

; Function Attrs: alwaysinline nounwind readnone uwtable
define linkonce_odr float @cos_f32(float %x) #6 {
  %y = tail call float @llvm.cos.f32(float %x) #8
  ret float %y
}

; Function Attrs: nounwind readnone speculatable
declare float @llvm.cos.f32(float) #7

; Function Attrs: alwaysinline nounwind readnone uwtable
define linkonce_odr double @cos_f64(double %x) #6 {
  %y = tail call double @llvm.cos.f64(double %x) #8
  ret double %y
}

; Function Attrs: nounwind readnone speculatable
declare double @llvm.cos.f64(double) #7

; Function Attrs: alwaysinline nounwind readnone uwtable
define linkonce_odr float @exp_f32(float %x) #6 {
  %y = tail call float @llvm.exp.f32(float %x) #8
  ret float %y
}

; Function Attrs: nounwind readnone speculatable
declare float @llvm.exp.f32(float) #7

; Function Attrs: alwaysinline nounwind readnone uwtable
define linkonce_odr double @exp_f64(double %x) #6 {
  %y = tail call double @llvm.exp.f64(double %x) #8
  ret double %y
}

; Function Attrs: nounwind readnone speculatable
declare double @llvm.exp.f64(double) #7

; Function Attrs: alwaysinline nounwind readnone uwtable
define linkonce_odr float @log_f32(float %x) #6 {
  %y = tail call float @llvm.log.f32(float %x) #8
  ret float %y
}

; Function Attrs: nounwind readnone speculatable
declare float @llvm.log.f32(float) #7

; Function Attrs: alwaysinline nounwind readnone uwtable
define linkonce_odr double @log_f64(double %x) #6 {
  %y = tail call double @llvm.log.f64(double %x) #8
  ret double %y
}

; Function Attrs: nounwind readnone speculatable
declare double @llvm.log.f64(double) #7

; Function Attrs: alwaysinline nounwind readnone uwtable
define linkonce_odr float @abs_f32(float %x) #6 {
  %y = tail call float @llvm.fabs.f32(float %x) #8
  ret float %y
}

; Function Attrs: nounwind readnone speculatable
declare float @llvm.fabs.f32(float) #7

; Function Attrs: alwaysinline nounwind readnone uwtable
define linkonce_odr double @abs_f64(double %x) #6 {
  %y = tail call double @llvm.fabs.f64(double %x) #8
  ret double %y
}

; Function Attrs: nounwind readnone speculatable
declare double @llvm.fabs.f64(double) #7

; Function Attrs: alwaysinline nounwind readnone uwtable
define linkonce_odr float @floor_f32(float %x) #6 {
  %y = tail call float @llvm.floor.f32(float %x) #8
  ret float %y
}

; Function Attrs: nounwind readnone speculatable
declare float @llvm.floor.f32(float) #7

; Function Attrs: alwaysinline nounwind readnone uwtable
define linkonce_odr double @floor_f64(double %x) #6 {
  %y = tail call double @llvm.floor.f64(double %x) #8
  ret double %y
}

; Function Attrs: nounwind readnone speculatable
declare double @llvm.floor.f64(double) #7

; Function Attrs: alwaysinline nounwind readnone uwtable
define linkonce_odr float @ceil_f32(float %x) #6 {
  %y = tail call float @ceilf(float %x) #8
  ret float %y
}

; Function Attrs: nounwind readnone
declare float @ceilf(float) #8

; Function Attrs: alwaysinline nounwind readnone uwtable
define linkonce_odr double @ceil_f64(double %x) #6 {
  %y = tail call double @ceil(double %x) #8
  ret double %y
}

; Function Attrs: nounwind readnone
declare double @ceil(double) #8

; Function Attrs: alwaysinline nounwind readnone uwtable
define linkonce_odr float @round_f32(float %x) #6 {
  %y = tail call float @llvm.nearbyint.f32(float %x) #8
  ret float %y
}

; Function Attrs: nounwind readnone speculatable
declare float @llvm.nearbyint.f32(float) #7

; Function Attrs: alwaysinline nounwind readnone uwtable
define linkonce_odr double @round_f64(double %x) #6 {
  %y = tail call double @llvm.nearbyint.f64(double %x) #8
  ret double %y
}

; Function Attrs: nounwind readnone speculatable
declare double @llvm.nearbyint.f64(double) #7

; Function Attrs: alwaysinline nounwind readnone uwtable
define linkonce_odr float @trunc_f32(float %x) #6 {
  %y = tail call float @llvm.trunc.f32(float %x) #8
  ret float %y
}

; Function Attrs: nounwind readnone speculatable
declare float @llvm.trunc.f32(float) #7

; Function Attrs: alwaysinline nounwind readnone uwtable
define linkonce_odr double @trunc_f64(double %x) #6 {
  %y = tail call double @llvm.trunc.f64(double %x) #8
  ret double %y
}

; Function Attrs: nounwind readnone speculatable
declare double @llvm.trunc.f64(double) #7

; Function Attrs: alwaysinline nounwind readnone uwtable
define linkonce_odr float @pow_f32(float %x, float %y) #6 {
  %z = tail call float @llvm.pow.f32(float %x, float %y) #8
  ret float %z
}

; Function Attrs: nounwind readnone speculatable
declare float @llvm.pow.f32(float, float) #7

; Function Attrs: alwaysinline nounwind readnone uwtable
define linkonce_odr double @pow_f64(double %x, double %y) #6 {
  %z = tail call double @llvm.pow.f64(double %x, double %y) #8
  ret double %z
}

; Function Attrs: nounwind readnone speculatable
declare double @llvm.pow.f64(double, double) #7

; Function Attrs: alwaysinline nounwind readnone uwtable
define linkonce_odr float @asin_f32(float %x) #6 {
  %y = tail call float @asinf(float %x) #8
  ret float %y
}

; Function Attrs: nounwind readnone
declare float @asinf(float) #8

; Function Attrs: alwaysinline nounwind readnone uwtable
define linkonce_odr double @asin_f64(double %x) #6 {
  %y = tail call double @asin(double %x) #8
  ret double %y
}

; Function Attrs: nounwind readnone
declare double @asin(double) #8

; Function Attrs: alwaysinline nounwind readnone uwtable
define linkonce_odr float @acos_f32(float %x) #6 {
  %y = tail call float @acosf(float %x) #8
  ret float %y
}

; Function Attrs: nounwind readnone
declare float @acosf(float) #8

; Function Attrs: alwaysinline nounwind readnone uwtable
define linkonce_odr double @acos_f64(double %x) #6 {
  %y = tail call double @acos(double %x) #8
  ret double %y
}

; Function Attrs: nounwind readnone
declare double @acos(double) #8

; Function Attrs: alwaysinline nounwind readnone uwtable
define linkonce_odr float @tan_f32(float %x) #6 {
  %y = tail call float @tanf(float %x) #8
  ret float %y
}

; Function Attrs: nounwind readnone
declare float @tanf(float) #8

; Function Attrs: alwaysinline nounwind readnone uwtable
define linkonce_odr double @tan_f64(double %x) #6 {
  %y = tail call double @tan(double %x) #8
  ret double %y
}

; Function Attrs: nounwind readnone
declare double @tan(double) #8

; Function Attrs: alwaysinline nounwind readnone uwtable
define linkonce_odr float @atan_f32(float %x) #6 {
  %y = tail call float @atanf(float %x) #8
  ret float %y
}

; Function Attrs: nounwind readnone
declare float @atanf(float) #8

; Function Attrs: alwaysinline nounwind readnone uwtable
define linkonce_odr double @atan_f64(double %x) #6 {
  %y = tail call double @atan(double %x) #8
  ret double %y
}

; Function Attrs: nounwind readnone
declare double @atan(double) #8

; Function Attrs: alwaysinline nounwind readnone uwtable
define linkonce_odr float @atan2_f32(float %y, float %x) #6 {
  %z = tail call float @atan2f(float %y, float %x) #8
  ret float %z
}

; Function Attrs: nounwind readnone
declare float @atan2f(float, float) #8

; Function Attrs: alwaysinline nounwind readnone uwtable
define linkonce_odr double @atan2_f64(double %y, double %x) #6 {
  %z = tail call double @atan2(double %y, double %x) #8
  ret double %z
}

; Function Attrs: nounwind readnone
declare double @atan2(double, double) #8

; Function Attrs: alwaysinline nounwind readnone uwtable
define linkonce_odr float @sinh_f32(float %x) #6 {
  %y = tail call float @sinhf(float %x) #8
  ret float %y
}

; Function Attrs: nounwind readnone
declare float @sinhf(float) #8

; Function Attrs: alwaysinline nounwind readnone uwtable
define linkonce_odr double @sinh_f64(double %x) #6 {
  %y = tail call double @sinh(double %x) #8
  ret double %y
}

; Function Attrs: nounwind readnone
declare double @sinh(double) #8

; Function Attrs: alwaysinline nounwind readnone uwtable
define linkonce_odr float @asinh_f32(float %x) #6 {
  %y = tail call float @asinhf(float %x) #8
  ret float %y
}

; Function Attrs: nounwind readnone
declare float @asinhf(float) #8

; Function Attrs: alwaysinline nounwind readnone uwtable
define linkonce_odr double @asinh_f64(double %x) #6 {
  %y = tail call double @asinh(double %x) #8
  ret double %y
}

; Function Attrs: nounwind readnone
declare double @asinh(double) #8

; Function Attrs: alwaysinline nounwind readnone uwtable
define linkonce_odr float @cosh_f32(float %x) #6 {
  %y = tail call float @coshf(float %x) #8
  ret float %y
}

; Function Attrs: nounwind readnone
declare float @coshf(float) #8

; Function Attrs: alwaysinline nounwind readnone uwtable
define linkonce_odr double @cosh_f64(double %x) #6 {
  %y = tail call double @cosh(double %x) #8
  ret double %y
}

; Function Attrs: nounwind readnone
declare double @cosh(double) #8

; Function Attrs: alwaysinline nounwind readnone uwtable
define linkonce_odr float @acosh_f32(float %x) #6 {
  %y = tail call float @acoshf(float %x) #8
  ret float %y
}

; Function Attrs: nounwind readnone
declare float @acoshf(float) #8

; Function Attrs: alwaysinline nounwind readnone uwtable
define linkonce_odr double @acosh_f64(double %x) #6 {
  %y = tail call double @acosh(double %x) #8
  ret double %y
}

; Function Attrs: nounwind readnone
declare double @acosh(double) #8

; Function Attrs: alwaysinline nounwind readnone uwtable
define linkonce_odr float @tanh_f32(float %x) #6 {
  %y = tail call float @tanhf(float %x) #8
  ret float %y
}

; Function Attrs: nounwind readnone
declare float @tanhf(float) #8

; Function Attrs: alwaysinline nounwind readnone uwtable
define linkonce_odr double @tanh_f64(double %x) #6 {
  %y = tail call double @tanh(double %x) #8
  ret double %y
}

; Function Attrs: nounwind readnone
declare double @tanh(double) #8

; Function Attrs: alwaysinline nounwind readnone uwtable
define linkonce_odr float @atanh_f32(float %x) #6 {
  %y = tail call float @atanhf(float %x) #8
  ret float %y
}

; Function Attrs: nounwind readnone
declare float @atanhf(float) #8

; Function Attrs: alwaysinline nounwind readnone uwtable
define linkonce_odr double @atanh_f64(double %x) #6 {
  %y = tail call double @atanh(double %x) #8
  ret double %y
}

; Function Attrs: nounwind readnone
declare double @atanh(double) #8

; Function Attrs: alwaysinline nounwind readnone uwtable
define linkonce_odr float @inf_f32() #6 {
  ret float 0x7FF0000000000000
}

; Function Attrs: alwaysinline nounwind readnone uwtable
define linkonce_odr float @neg_inf_f32() #6 {
  ret float 0xFFF0000000000000
}

; Function Attrs: alwaysinline nounwind readnone uwtable
define linkonce_odr float @nan_f32() #6 {
  ret float 0x7FF8000000000000
}

; Function Attrs: alwaysinline nounwind readnone uwtable
define linkonce_odr double @inf_f64() #6 {
  ret double 0x7FF0000000000000
}

; Function Attrs: alwaysinline nounwind readnone uwtable
define linkonce_odr double @neg_inf_f64() #6 {
  ret double 0xFFF0000000000000
}

; Function Attrs: alwaysinline nounwind readnone uwtable
define linkonce_odr double @nan_f64() #6 {
  ret double 0x7FF8000000000000
}

; Function Attrs: norecurse nounwind
define weak void @halide_set_gpu_device(i32) local_unnamed_addr #2 {
  store i32 %0, i32* @_ZN6Halide7Runtime8Internal17halide_gpu_deviceE, align 4, !tbaa !96
  store i8 1, i8* @_ZN6Halide7Runtime8Internal29halide_gpu_device_initializedE, align 1, !tbaa !8
  ret void
}

; Function Attrs: nounwind
define weak i32 @halide_get_gpu_device(i8*) local_unnamed_addr #0 {
  br label %2

; <label>:2:                                      ; preds = %2, %1
  %3 = atomicrmw xchg i32* @_ZN6Halide7Runtime8Internal22halide_gpu_device_lockE, i32 1 seq_cst
  %4 = icmp eq i32 %3, 0
  br i1 %4, label %5, label %2

; <label>:5:                                      ; preds = %2
  %6 = load i8, i8* @_ZN6Halide7Runtime8Internal29halide_gpu_device_initializedE, align 1, !tbaa !8, !range !10
  %7 = icmp eq i8 %6, 0
  br i1 %7, label %10, label %8

; <label>:8:                                      ; preds = %5
  %9 = load i32, i32* @_ZN6Halide7Runtime8Internal17halide_gpu_deviceE, align 4, !tbaa !96
  br label %17

; <label>:10:                                     ; preds = %5
  %11 = tail call i8* @getenv(i8* getelementptr inbounds ([14 x i8], [14 x i8]* @.str.9, i64 0, i64 0)) #13
  %12 = icmp eq i8* %11, null
  br i1 %12, label %15, label %13

; <label>:13:                                     ; preds = %10
  %14 = tail call i32 @atoi(i8* nonnull %11) #13
  br label %15

; <label>:15:                                     ; preds = %13, %10
  %16 = phi i32 [ %14, %13 ], [ -1, %10 ]
  store i32 %16, i32* @_ZN6Halide7Runtime8Internal17halide_gpu_deviceE, align 4, !tbaa !96
  store i8 1, i8* @_ZN6Halide7Runtime8Internal29halide_gpu_device_initializedE, align 1, !tbaa !8
  br label %17

; <label>:17:                                     ; preds = %15, %8
  %18 = phi i32 [ %9, %8 ], [ %16, %15 ]
  store atomic i32 0, i32* @_ZN6Halide7Runtime8Internal22halide_gpu_device_lockE release, align 4
  ret i32 %18
}

; Function Attrs: nounwind
define weak i32 @halide_default_trace(i8*, %struct.halide_trace_event_t*) #0 {
  %3 = alloca [4096 x i8], align 1
  %4 = atomicrmw add i32* @_ZZ20halide_default_traceE3ids, i32 1 seq_cst
  %5 = tail call i32 @halide_get_trace_file(i8* %0) #15
  %6 = icmp sgt i32 %5, 0
  br i1 %6, label %7, label %249

; <label>:7:                                      ; preds = %2
  %8 = getelementptr inbounds %struct.halide_trace_event_t, %struct.halide_trace_event_t* %1, i64 0, i32 4
  %9 = getelementptr inbounds %struct.halide_trace_event_t, %struct.halide_trace_event_t* %1, i64 0, i32 4, i32 2
  %10 = load i16, i16* %9, align 2, !tbaa !105
  %11 = zext i16 %10 to i32
  %12 = getelementptr inbounds %struct.halide_trace_event_t, %struct.halide_trace_event_t* %1, i64 0, i32 4, i32 1
  %13 = load i8, i8* %12, align 1, !tbaa !99
  %14 = zext i8 %13 to i32
  %15 = add nuw nsw i32 %14, 7
  %16 = lshr i32 %15, 3
  %17 = mul nuw nsw i32 %16, %11
  %18 = getelementptr inbounds %struct.halide_trace_event_t, %struct.halide_trace_event_t* %1, i64 0, i32 8
  %19 = load i32, i32* %18, align 8, !tbaa !108
  %20 = shl i32 %19, 2
  %21 = getelementptr inbounds %struct.halide_trace_event_t, %struct.halide_trace_event_t* %1, i64 0, i32 0
  %22 = load i8*, i8** %21, align 8, !tbaa !109
  %23 = tail call i64 @strlen(i8* %22) #13
  %24 = trunc i64 %23 to i32
  %25 = add i32 %24, 1
  %26 = getelementptr inbounds %struct.halide_trace_event_t, %struct.halide_trace_event_t* %1, i64 0, i32 3
  %27 = load i8*, i8** %26, align 8, !tbaa !110
  %28 = icmp eq i8* %27, null
  br i1 %28, label %33, label %29

; <label>:29:                                     ; preds = %7
  %30 = tail call i64 @strlen(i8* nonnull %27) #13
  %31 = trunc i64 %30 to i32
  %32 = add i32 %31, 1
  br label %33

; <label>:33:                                     ; preds = %29, %7
  %34 = phi i32 [ %32, %29 ], [ 1, %7 ]
  %35 = add i32 %20, 31
  %36 = add i32 %35, %17
  %37 = add i32 %36, %25
  %38 = add i32 %37, %34
  %39 = and i32 %38, -4
  %40 = load %"class.Halide::Runtime::Internal::TraceBuffer"*, %"class.Halide::Runtime::Internal::TraceBuffer"** @_ZN6Halide7Runtime8Internal19halide_trace_bufferE, align 8, !tbaa !3
  %41 = getelementptr inbounds %"class.Halide::Runtime::Internal::TraceBuffer", %"class.Halide::Runtime::Internal::TraceBuffer"* %40, i64 0, i32 0, i32 0
  %42 = icmp ult i32 %39, 1048577
  %43 = getelementptr inbounds %"class.Halide::Runtime::Internal::TraceBuffer", %"class.Halide::Runtime::Internal::TraceBuffer"* %40, i64 0, i32 1
  %44 = getelementptr inbounds %"class.Halide::Runtime::Internal::TraceBuffer", %"class.Halide::Runtime::Internal::TraceBuffer"* %40, i64 0, i32 2
  %45 = getelementptr inbounds %"class.Halide::Runtime::Internal::TraceBuffer", %"class.Halide::Runtime::Internal::TraceBuffer"* %40, i64 0, i32 3, i64 0
  br i1 %42, label %46, label %78

; <label>:46:                                     ; preds = %52, %33
  %47 = load volatile i32, i32* %41, align 4, !tbaa !111
  %48 = and i32 %47, 1073741823
  %49 = add nuw nsw i32 %48, 1
  %50 = cmpxchg i32* %41, i32 %48, i32 %49 seq_cst seq_cst
  %51 = extractvalue { i32, i1 } %50, 1
  br i1 %51, label %53, label %52

; <label>:52:                                     ; preds = %76, %75, %67, %46
  br label %46

; <label>:53:                                     ; preds = %46
  %54 = atomicrmw add i32* %43, i32 %39 seq_cst
  %55 = add i32 %54, %39
  %56 = icmp ugt i32 %55, 1048576
  br i1 %56, label %57, label %110

; <label>:57:                                     ; preds = %53
  %58 = atomicrmw add i32* %44, i32 %39 seq_cst
  %59 = atomicrmw sub i32* %41, i32 1 seq_cst
  br label %60

; <label>:60:                                     ; preds = %60, %57
  %61 = atomicrmw or i32* %41, i32 1073741824 seq_cst
  %62 = cmpxchg i32* %41, i32 1073741824, i32 -2147483648 seq_cst seq_cst
  %63 = extractvalue { i32, i1 } %62, 1
  br i1 %63, label %64, label %60

; <label>:64:                                     ; preds = %60
  %65 = load i32, i32* %43, align 4, !tbaa !113
  %66 = icmp eq i32 %65, 0
  br i1 %66, label %76, label %67

; <label>:67:                                     ; preds = %64
  %68 = load i32, i32* %44, align 4, !tbaa !115
  %69 = sub i32 %65, %68
  store i32 %69, i32* %43, align 4, !tbaa !113
  %70 = zext i32 %69 to i64
  %71 = tail call i64 @write(i32 %5, i8* nonnull %45, i64 %70) #13
  %72 = trunc i64 %71 to i32
  %73 = icmp eq i32 %69, %72
  store i32 0, i32* %43, align 4, !tbaa !113
  store i32 0, i32* %44, align 4, !tbaa !115
  %74 = atomicrmw and i32* %41, i32 2147483647 seq_cst
  br i1 %73, label %52, label %75

; <label>:75:                                     ; preds = %67
  tail call void @halide_print(i8* %0, i8* getelementptr inbounds ([121 x i8], [121 x i8]* @.str.32, i64 0, i64 0)) #13
  tail call void @abort() #13
  br label %52

; <label>:76:                                     ; preds = %64
  %77 = atomicrmw and i32* %41, i32 2147483647 seq_cst
  br label %52

; <label>:78:                                     ; preds = %84, %33
  %79 = load volatile i32, i32* %41, align 4, !tbaa !111
  %80 = and i32 %79, 1073741823
  %81 = add nuw nsw i32 %80, 1
  %82 = cmpxchg i32* %41, i32 %80, i32 %81 seq_cst seq_cst
  %83 = extractvalue { i32, i1 } %82, 1
  br i1 %83, label %85, label %84

; <label>:84:                                     ; preds = %108, %107, %99, %78
  br label %78

; <label>:85:                                     ; preds = %78
  tail call void @halide_print(i8* %0, i8* getelementptr inbounds ([97 x i8], [97 x i8]* @.str.31, i64 0, i64 0)) #13
  tail call void @abort() #13
  %86 = atomicrmw add i32* %43, i32 %39 seq_cst
  %87 = add i32 %86, %39
  %88 = icmp ugt i32 %87, 1048576
  br i1 %88, label %89, label %110

; <label>:89:                                     ; preds = %85
  %90 = atomicrmw add i32* %44, i32 %39 seq_cst
  %91 = atomicrmw sub i32* %41, i32 1 seq_cst
  br label %92

; <label>:92:                                     ; preds = %92, %89
  %93 = atomicrmw or i32* %41, i32 1073741824 seq_cst
  %94 = cmpxchg i32* %41, i32 1073741824, i32 -2147483648 seq_cst seq_cst
  %95 = extractvalue { i32, i1 } %94, 1
  br i1 %95, label %96, label %92

; <label>:96:                                     ; preds = %92
  %97 = load i32, i32* %43, align 4, !tbaa !113
  %98 = icmp eq i32 %97, 0
  br i1 %98, label %108, label %99

; <label>:99:                                     ; preds = %96
  %100 = load i32, i32* %44, align 4, !tbaa !115
  %101 = sub i32 %97, %100
  store i32 %101, i32* %43, align 4, !tbaa !113
  %102 = zext i32 %101 to i64
  %103 = tail call i64 @write(i32 %5, i8* nonnull %45, i64 %102) #13
  %104 = trunc i64 %103 to i32
  %105 = icmp eq i32 %101, %104
  store i32 0, i32* %43, align 4, !tbaa !113
  store i32 0, i32* %44, align 4, !tbaa !115
  %106 = atomicrmw and i32* %41, i32 2147483647 seq_cst
  br i1 %105, label %84, label %107

; <label>:107:                                    ; preds = %99
  tail call void @halide_print(i8* %0, i8* getelementptr inbounds ([121 x i8], [121 x i8]* @.str.32, i64 0, i64 0)) #13
  tail call void @abort() #13
  br label %84

; <label>:108:                                    ; preds = %96
  %109 = atomicrmw and i32* %41, i32 2147483647 seq_cst
  br label %84

; <label>:110:                                    ; preds = %85, %53
  %111 = phi i32 [ %54, %53 ], [ %86, %85 ]
  %112 = zext i32 %111 to i64
  %113 = getelementptr inbounds %"class.Halide::Runtime::Internal::TraceBuffer", %"class.Halide::Runtime::Internal::TraceBuffer"* %40, i64 0, i32 3, i64 %112
  %114 = icmp ugt i32 %39, 4096
  br i1 %114, label %115, label %132

; <label>:115:                                    ; preds = %110
  %116 = tail call i8* @halide_malloc(i8* null, i64 1024) #13
  %117 = ptrtoint i8* %116 to i64
  %118 = icmp eq i8* %116, null
  br i1 %118, label %121, label %119

; <label>:119:                                    ; preds = %115
  %120 = getelementptr inbounds i8, i8* %116, i64 1023
  store i8 0, i8* %120, align 1, !tbaa !7
  br label %121

; <label>:121:                                    ; preds = %119, %115
  %122 = phi i8* [ %120, %119 ], [ null, %115 ]
  %123 = zext i32 %39 to i64
  %124 = tail call i8* @halide_uint64_to_string(i8* %116, i8* %122, i64 %123, i32 1) #13
  %125 = tail call i8* @halide_string_to_string(i8* %124, i8* %122, i8* getelementptr inbounds ([2 x i8], [2 x i8]* @.str.10, i64 0, i64 0)) #13
  br i1 %118, label %126, label %127

; <label>:126:                                    ; preds = %121
  tail call void @halide_error(i8* null, i8* getelementptr inbounds ([35 x i8], [35 x i8]* @.str.33, i64 0, i64 0)) #13
  br label %131

; <label>:127:                                    ; preds = %121
  %128 = ptrtoint i8* %125 to i64
  %129 = sub i64 1, %117
  %130 = add i64 %129, %128
  tail call void @halide_msan_annotate_memory_is_initialized(i8* null, i8* nonnull %116, i64 %130) #13
  tail call void @halide_print(i8* null, i8* nonnull %116) #13
  br label %131

